   1               		.file	"lcd.c"
   2               	__SREG__ = 0x3f
   3               	__SP_H__ = 0x3e
   4               	__SP_L__ = 0x3d
   5               	__CCP__  = 0x34
   6               	__tmp_reg__ = 0
   7               	__zero_reg__ = 1
  15               	.Ltext0:
  16               	.global	lcd_brightness
  18               	lcd_brightness:
  19               	.LFB7:
  20               	.LM1:
  21               	.LVL0:
  22               	/* prologue: function */
  23               	/* frame size = 0 */
  24               	.LM2:
  25 0000 93E8      		ldi r25,lo8(-125)
  26 0002 9093 B000 		sts 176,r25
  27               	.LM3:
  28 0006 91E0      		ldi r25,lo8(1)
  29 0008 9093 B100 		sts 177,r25
  30               	.LM4:
  31 000c 8093 B300 		sts 179,r24
  32               	/* epilogue start */
  33               	.LM5:
  34 0010 0895      		ret
  35               	.LFE7:
  37               	.global	set_orientation
  39               	set_orientation:
  40               	.LFB8:
  41               	.LM6:
  42               	.LVL1:
  43               	/* prologue: function */
  44               	/* frame size = 0 */
  45 0012 282F      		mov r18,r24
  46               	.LM7:
  47 0014 8093 0000 		sts display+4,r24
  48               	.LM8:
  49 0018 86E3      		ldi r24,lo8(54)
  50 001a 90E0      		ldi r25,hi8(54)
  51               	.LVL2:
  52               	/* #APP */
  53               	 ;  66 "lcd/lcd.c" 1
  54 001c 8093 0040 		sts 16384,r24
  55               	 ;  0 "" 2
  56               	.LM9:
  57               	/* #NOAPP */
  58 0020 2223      		tst r18
  59 0022 01F4      		brne .L4
  60               	.LM10:
  61 0024 80EF      		ldi r24,lo8(240)
  62 0026 90E0      		ldi r25,hi8(240)
  63 0028 9093 0000 		sts (display)+1,r25
  64 002c 8093 0000 		sts display,r24
  65               	.LM11:
  66 0030 80E4      		ldi r24,lo8(320)
  67 0032 91E0      		ldi r25,hi8(320)
  68 0034 9093 0000 		sts (display+2)+1,r25
  69 0038 8093 0000 		sts display+2,r24
  70               	.LM12:
  71 003c 88E4      		ldi r24,lo8(72)
  72 003e 90E0      		ldi r25,hi8(72)
  73               	/* #APP */
  74               	 ;  70 "lcd/lcd.c" 1
  75 0040 8093 0041 		sts 16640,r24
  76               	 ;  0 "" 2
  77               	/* #NOAPP */
  78 0044 00C0      		rjmp .L5
  79               	.L4:
  80               	.LM13:
  81 0046 2130      		cpi r18,lo8(1)
  82 0048 01F4      		brne .L6
  83               	.LM14:
  84 004a 80E4      		ldi r24,lo8(320)
  85 004c 91E0      		ldi r25,hi8(320)
  86 004e 9093 0000 		sts (display)+1,r25
  87 0052 8093 0000 		sts display,r24
  88               	.LM15:
  89 0056 80EF      		ldi r24,lo8(240)
  90 0058 90E0      		ldi r25,hi8(240)
  91 005a 9093 0000 		sts (display+2)+1,r25
  92 005e 8093 0000 		sts display+2,r24
  93               	.LM16:
  94 0062 88EE      		ldi r24,lo8(232)
  95 0064 90E0      		ldi r25,hi8(232)
  96               	/* #APP */
  97               	 ;  75 "lcd/lcd.c" 1
  98 0066 8093 0041 		sts 16640,r24
  99               	 ;  0 "" 2
 100               	/* #NOAPP */
 101 006a 00C0      		rjmp .L5
 102               	.L6:
 103               	.LM17:
 104 006c 2230      		cpi r18,lo8(2)
 105 006e 01F4      		brne .L7
 106               	.LM18:
 107 0070 80EF      		ldi r24,lo8(240)
 108 0072 90E0      		ldi r25,hi8(240)
 109 0074 9093 0000 		sts (display)+1,r25
 110 0078 8093 0000 		sts display,r24
 111               	.LM19:
 112 007c 80E4      		ldi r24,lo8(320)
 113 007e 91E0      		ldi r25,hi8(320)
 114 0080 9093 0000 		sts (display+2)+1,r25
 115 0084 8093 0000 		sts display+2,r24
 116               	.LM20:
 117 0088 88E8      		ldi r24,lo8(136)
 118 008a 90E0      		ldi r25,hi8(136)
 119               	/* #APP */
 120               	 ;  80 "lcd/lcd.c" 1
 121 008c 8093 0041 		sts 16640,r24
 122               	 ;  0 "" 2
 123               	/* #NOAPP */
 124 0090 00C0      		rjmp .L5
 125               	.L7:
 126               	.LM21:
 127 0092 2330      		cpi r18,lo8(3)
 128 0094 01F4      		brne .L5
 129               	.LM22:
 130 0096 80E4      		ldi r24,lo8(320)
 131 0098 91E0      		ldi r25,hi8(320)
 132 009a 9093 0000 		sts (display)+1,r25
 133 009e 8093 0000 		sts display,r24
 134               	.LM23:
 135 00a2 80EF      		ldi r24,lo8(240)
 136 00a4 90E0      		ldi r25,hi8(240)
 137 00a6 9093 0000 		sts (display+2)+1,r25
 138 00aa 8093 0000 		sts display+2,r24
 139               	.LM24:
 140 00ae 88E2      		ldi r24,lo8(40)
 141 00b0 90E0      		ldi r25,hi8(40)
 142               	/* #APP */
 143               	 ;  85 "lcd/lcd.c" 1
 144 00b2 8093 0041 		sts 16640,r24
 145               	 ;  0 "" 2
 146               	/* #NOAPP */
 147               	.L5:
 148               	.LM25:
 149 00b6 8AE2      		ldi r24,lo8(42)
 150 00b8 90E0      		ldi r25,hi8(42)
 151               	/* #APP */
 152               	 ;  87 "lcd/lcd.c" 1
 153 00ba 8093 0040 		sts 16384,r24
 154               	 ;  0 "" 2
 155               	.LM26:
 156               	/* #NOAPP */
 157 00be 20E0      		ldi r18,lo8(0)
 158 00c0 30E0      		ldi r19,hi8(0)
 159               	.LVL3:
 160               	/* #APP */
 161               	 ;  88 "lcd/lcd.c" 1
 162 00c2 3093 0041 		sts 16640,r19 
 163 00c6 2093 0041 		 sts 16640,r18
 164               	 ;  0 "" 2
 165               	.LM27:
 166               	/* #NOAPP */
 167 00ca 8091 0000 		lds r24,display
 168 00ce 9091 0000 		lds r25,(display)+1
 169 00d2 0197      		sbiw r24,1
 170               	/* #APP */
 171               	 ;  89 "lcd/lcd.c" 1
 172 00d4 9093 0041 		sts 16640,r25 
 173 00d8 8093 0041 		 sts 16640,r24
 174               	 ;  0 "" 2
 175               	.LM28:
 176               	/* #NOAPP */
 177 00dc 8BE2      		ldi r24,lo8(43)
 178 00de 90E0      		ldi r25,hi8(43)
 179               	/* #APP */
 180               	 ;  90 "lcd/lcd.c" 1
 181 00e0 8093 0040 		sts 16384,r24
 182               	 ;  0 "" 2
 183               	.LM29:
 184               	 ;  91 "lcd/lcd.c" 1
 185 00e4 3093 0041 		sts 16640,r19 
 186 00e8 2093 0041 		 sts 16640,r18
 187               	 ;  0 "" 2
 188               	.LM30:
 189               	/* #NOAPP */
 190 00ec 8091 0000 		lds r24,display+2
 191 00f0 9091 0000 		lds r25,(display+2)+1
 192 00f4 0197      		sbiw r24,1
 193               	/* #APP */
 194               	 ;  92 "lcd/lcd.c" 1
 195 00f6 9093 0041 		sts 16640,r25 
 196 00fa 8093 0041 		 sts 16640,r24
 197               	 ;  0 "" 2
 198               	/* epilogue start */
 199               	.LM31:
 200               	/* #NOAPP */
 201 00fe 0895      		ret
 202               	.LFE8:
 204               	.global	set_frame_rate_hz
 206               	set_frame_rate_hz:
 207               	.LFB9:
 208               	.LM32:
 209               	.LVL4:
 210 0100 1F93      		push r17
 211               	/* prologue: function */
 212               	/* frame size = 0 */
 213 0102 682F      		mov r22,r24
 214               	.LM33:
 215 0104 8737      		cpi r24,lo8(119)
 216 0106 00F0      		brlo .L10
 217 0108 10E0      		ldi r17,lo8(0)
 218               	.LVL5:
 219 010a 66E7      		ldi r22,lo8(118)
 220               	.LVL6:
 221 010c 00C0      		rjmp .L11
 222               	.LVL7:
 223               	.L10:
 224               	.LM34:
 225 010e 8830      		cpi r24,lo8(8)
 226 0110 00F4      		brsh .L12
 227 0112 68E0      		ldi r22,lo8(8)
 228               	.LVL8:
 229 0114 00C0      		rjmp .L13
 230               	.LVL9:
 231               	.L12:
 232               	.LM35:
 233 0116 8D33      		cpi r24,lo8(61)
 234 0118 00F0      		brlo .L14
 235 011a 10E0      		ldi r17,lo8(0)
 236               	.LVL10:
 237 011c 00C0      		rjmp .L11
 238               	.LVL11:
 239               	.L14:
 240               	.LM36:
 241 011e 8F31      		cpi r24,lo8(31)
 242 0120 00F0      		brlo .L15
 243 0122 11E0      		ldi r17,lo8(1)
 244               	.LVL12:
 245 0124 00C0      		rjmp .L11
 246               	.LVL13:
 247               	.L15:
 248               	.LM37:
 249 0126 8031      		cpi r24,lo8(16)
 250 0128 00F0      		brlo .L13
 251 012a 12E0      		ldi r17,lo8(2)
 252               	.LVL14:
 253 012c 00C0      		rjmp .L11
 254               	.LVL15:
 255               	.L13:
 256 012e 13E0      		ldi r17,lo8(3)
 257               	.LVL16:
 258               	.L11:
 259               	.LM38:
 260 0130 81EB      		ldi r24,lo8(177)
 261 0132 90E0      		ldi r25,hi8(177)
 262               	/* #APP */
 263               	 ;  115 "lcd/lcd.c" 1
 264 0134 8093 0040 		sts 16384,r24
 265               	 ;  0 "" 2
 266               	.LM39:
 267               	 ;  116 "lcd/lcd.c" 1
 268 0138 1093 0041 		sts 16640,r17
 269               	 ;  0 "" 2
 270               	.LM40:
 271               	/* #NOAPP */
 272 013c 70E0      		ldi r23,lo8(0)
 273               	.LVL17:
 274 013e 8827      		clr r24
 275 0140 77FD      		sbrc r23,7
 276 0142 8095      		com r24
 277 0144 982F      		mov r25,r24
 278               	.LVL18:
 279 0146 0E94 0000 		call __floatsisf
 280               	.LVL19:
 281 014a 9B01      		movw r18,r22
 282 014c AC01      		movw r20,r24
 283 014e 60E0      		ldi r22,lo8(0x44f00000)
 284 0150 70E0      		ldi r23,hi8(0x44f00000)
 285 0152 80EF      		ldi r24,hlo8(0x44f00000)
 286 0154 94E4      		ldi r25,hhi8(0x44f00000)
 287 0156 0E94 0000 		call __divsf3
 288 015a 0E94 0000 		call __fixunssfsi
 289 015e 70E0      		ldi r23,lo8(0)
 290 0160 00C0      		rjmp 2f
 291 0162 7595      	1:	asr r23
 292 0164 6795      		ror r22
 293 0166 1A95      	2:	dec r17
 294 0168 02F4      		brpl 1b
 295               	/* #APP */
 296               	 ;  117 "lcd/lcd.c" 1
 297 016a 6093 0041 		sts 16640,r22
 298               	 ;  0 "" 2
 299               	/* epilogue start */
 300               	.LM41:
 301               	/* #NOAPP */
 302 016e 1F91      		pop r17
 303               	.LVL20:
 304 0170 0895      		ret
 305               	.LFE9:
 307               	.global	fill_image_pgm
 309               	fill_image_pgm:
 310               	.LFB10:
 311               	.LM42:
 312               	.LVL21:
 313 0172 0F93      		push r16
 314               	.LVL22:
 315 0174 1F93      		push r17
 316               	/* prologue: function */
 317               	/* frame size = 0 */
 318               	.LM43:
 319 0176 EAE2      		ldi r30,lo8(42)
 320 0178 F0E0      		ldi r31,hi8(42)
 321               	/* #APP */
 322               	 ;  121 "lcd/lcd.c" 1
 323 017a E093 0040 		sts 16384,r30
 324               	 ;  0 "" 2
 325               	.LM44:
 326               	 ;  122 "lcd/lcd.c" 1
 327 017e 9093 0041 		sts 16640,r25 
 328 0182 8093 0041 		 sts 16640,r24
 329               	 ;  0 "" 2
 330               	.LM45:
 331               	/* #NOAPP */
 332 0186 840F      		add r24,r20
 333 0188 951F      		adc r25,r21
 334               	.LVL23:
 335               	/* #APP */
 336               	 ;  123 "lcd/lcd.c" 1
 337 018a 9093 0041 		sts 16640,r25 
 338 018e 8093 0041 		 sts 16640,r24
 339               	 ;  0 "" 2
 340               	.LM46:
 341               	/* #NOAPP */
 342 0192 8BE2      		ldi r24,lo8(43)
 343 0194 90E0      		ldi r25,hi8(43)
 344               	.LVL24:
 345               	/* #APP */
 346               	 ;  124 "lcd/lcd.c" 1
 347 0196 8093 0040 		sts 16384,r24
 348               	 ;  0 "" 2
 349               	.LM47:
 350               	 ;  125 "lcd/lcd.c" 1
 351 019a 7093 0041 		sts 16640,r23 
 352 019e 6093 0041 		 sts 16640,r22
 353               	 ;  0 "" 2
 354               	.LM48:
 355               	/* #NOAPP */
 356 01a2 620F      		add r22,r18
 357 01a4 731F      		adc r23,r19
 358               	.LVL25:
 359               	/* #APP */
 360               	 ;  126 "lcd/lcd.c" 1
 361 01a6 7093 0041 		sts 16640,r23 
 362 01aa 6093 0041 		 sts 16640,r22
 363               	 ;  0 "" 2
 364               	.LM49:
 365               	/* #NOAPP */
 366 01ae 8CE2      		ldi r24,lo8(44)
 367 01b0 90E0      		ldi r25,hi8(44)
 368               	/* #APP */
 369               	 ;  127 "lcd/lcd.c" 1
 370 01b2 8093 0040 		sts 16384,r24
 371               	 ;  0 "" 2
 372               	.LM50:
 373               	/* #NOAPP */
 374 01b6 4F5F      		subi r20,lo8(-(1))
 375 01b8 5F4F      		sbci r21,hi8(-(1))
 376               	.LVL26:
 377               	.LM51:
 378 01ba 2F5F      		subi r18,lo8(-(1))
 379 01bc 3F4F      		sbci r19,hi8(-(1))
 380               	.LVL27:
 381               	.LM52:
 382 01be 4217      		cp r20,r18
 383 01c0 5307      		cpc r21,r19
 384 01c2 00F4      		brsh .L18
 385               	.LM53:
 386 01c4 822F      		mov r24,r18
 387               	.LVL28:
 388 01c6 8770      		andi r24,lo8(7)
 389 01c8 90E0      		ldi r25,lo8(0)
 390 01ca 849F      		mul r24,r20
 391 01cc B001      		movw r22,r0
 392 01ce 859F      		mul r24,r21
 393 01d0 700D      		add r23,r0
 394 01d2 949F      		mul r25,r20
 395 01d4 700D      		add r23,r0
 396 01d6 1124      		clr r1
 397               	.LVL29:
 398               	.LM54:
 399 01d8 F3E0      		ldi r31,3
 400 01da 3695      	1:	lsr r19
 401 01dc 2795      		ror r18
 402 01de FA95      		dec r31
 403 01e0 01F4      		brne 1b
 404               	.LVL30:
 405 01e2 822F      		mov r24,r18
 406 01e4 90E0      		ldi r25,lo8(0)
 407 01e6 849F      		mul r24,r20
 408 01e8 D001      		movw r26,r0
 409 01ea 859F      		mul r24,r21
 410 01ec B00D      		add r27,r0
 411 01ee 949F      		mul r25,r20
 412 01f0 B00D      		add r27,r0
 413 01f2 1124      		clr r1
 414               	.LVL31:
 415 01f4 00C0      		rjmp .L19
 416               	.LVL32:
 417               	.L18:
 418               	.LM55:
 419 01f6 842F      		mov r24,r20
 420               	.LVL33:
 421 01f8 8770      		andi r24,lo8(7)
 422 01fa 90E0      		ldi r25,lo8(0)
 423 01fc 829F      		mul r24,r18
 424 01fe B001      		movw r22,r0
 425 0200 839F      		mul r24,r19
 426 0202 700D      		add r23,r0
 427 0204 929F      		mul r25,r18
 428 0206 700D      		add r23,r0
 429 0208 1124      		clr r1
 430               	.LVL34:
 431               	.LM56:
 432 020a E3E0      		ldi r30,3
 433 020c 5695      	1:	lsr r21
 434 020e 4795      		ror r20
 435 0210 EA95      		dec r30
 436 0212 01F4      		brne 1b
 437               	.LVL35:
 438 0214 842F      		mov r24,r20
 439 0216 90E0      		ldi r25,lo8(0)
 440 0218 829F      		mul r24,r18
 441 021a D001      		movw r26,r0
 442 021c 839F      		mul r24,r19
 443 021e B00D      		add r27,r0
 444 0220 929F      		mul r25,r18
 445 0222 B00D      		add r27,r0
 446 0224 1124      		clr r1
 447               	.LVL36:
 448               	.L19:
 449               	.LM57:
 450 0226 562F      		mov r21,r22
 451               	.LVL37:
 452 0228 5770      		andi r21,lo8(7)
 453 022a 9801      		movw r18,r16
 454               	.LVL38:
 455 022c 452F      		mov r20,r21
 456               	.LVL39:
 457 022e 00C0      		rjmp .L20
 458               	.LVL40:
 459               	.L21:
 460               	.LM58:
 461 0230 F901      		movw r30,r18
 462               	.LBB36:
 463               	.LM59:
 464 0232 2E5F      		subi r18,lo8(-(2))
 465 0234 3F4F      		sbci r19,hi8(-(2))
 466               	/* #APP */
 467               	 ;  150 "lcd/lcd.c" 1
 468 0236 8591      		lpm r24, Z+
 469 0238 9491      		lpm r25, Z
 470               		
 471               	 ;  0 "" 2
 472               	/* #NOAPP */
 473               	.LBE36:
 474               	/* #APP */
 475               	 ;  150 "lcd/lcd.c" 1
 476 023a 9093 0041 		sts 16640,r25 
 477 023e 8093 0041 		 sts 16640,r24
 478               	 ;  0 "" 2
 479               	/* #NOAPP */
 480 0242 4150      		subi r20,lo8(-(-1))
 481               	.LVL41:
 482               	.L20:
 483               	.LM60:
 484 0244 4423      		tst r20
 485 0246 01F4      		brne .L21
 486 0248 252F      		mov r18,r21
 487               	.LVL42:
 488 024a 30E0      		ldi r19,lo8(0)
 489               	.LVL43:
 490 024c 220F      		lsl r18
 491 024e 331F      		rol r19
 492               	.LVL44:
 493 0250 200F      		add r18,r16
 494 0252 311F      		adc r19,r17
 495               	.LM61:
 496 0254 AB01      		movw r20,r22
 497               	.LVL45:
 498 0256 83E0      		ldi r24,3
 499 0258 5695      	1:	lsr r21
 500 025a 4795      		ror r20
 501 025c 8A95      		dec r24
 502 025e 01F4      		brne 1b
 503               	.LVL46:
 504 0260 4A0F      		add r20,r26
 505 0262 5B1F      		adc r21,r27
 506 0264 00C0      		rjmp .L22
 507               	.LVL47:
 508               	.L23:
 509               	.LBB37:
 510               	.LM62:
 511 0266 F901      		movw r30,r18
 512               	.LVL48:
 513               	/* #APP */
 514               	 ;  154 "lcd/lcd.c" 1
 515 0268 8591      		lpm r24, Z+
 516 026a 9491      		lpm r25, Z
 517               		
 518               	 ;  0 "" 2
 519               	.LVL49:
 520               	/* #NOAPP */
 521               	.LBE37:
 522               	/* #APP */
 523               	 ;  154 "lcd/lcd.c" 1
 524 026c 9093 0041 		sts 16640,r25 
 525 0270 8093 0041 		 sts 16640,r24
 526               	 ;  0 "" 2
 527               	/* #NOAPP */
 528 0274 F901      		movw r30,r18
 529               	.LVL50:
 530 0276 3296      		adiw r30,2
 531               	.LBB38:
 532               	.LM63:
 533               	/* #APP */
 534               	 ;  155 "lcd/lcd.c" 1
 535 0278 8591      		lpm r24, Z+
 536 027a 9491      		lpm r25, Z
 537               		
 538               	 ;  0 "" 2
 539               	.LVL51:
 540               	/* #NOAPP */
 541               	.LBE38:
 542               	/* #APP */
 543               	 ;  155 "lcd/lcd.c" 1
 544 027c 9093 0041 		sts 16640,r25 
 545 0280 8093 0041 		 sts 16640,r24
 546               	 ;  0 "" 2
 547               	/* #NOAPP */
 548 0284 F901      		movw r30,r18
 549               	.LVL52:
 550 0286 3496      		adiw r30,4
 551               	.LBB39:
 552               	.LM64:
 553               	/* #APP */
 554               	 ;  156 "lcd/lcd.c" 1
 555 0288 8591      		lpm r24, Z+
 556 028a 9491      		lpm r25, Z
 557               		
 558               	 ;  0 "" 2
 559               	.LVL53:
 560               	/* #NOAPP */
 561               	.LBE39:
 562               	/* #APP */
 563               	 ;  156 "lcd/lcd.c" 1
 564 028c 9093 0041 		sts 16640,r25 
 565 0290 8093 0041 		 sts 16640,r24
 566               	 ;  0 "" 2
 567               	/* #NOAPP */
 568 0294 F901      		movw r30,r18
 569               	.LVL54:
 570 0296 3696      		adiw r30,6
 571               	.LBB40:
 572               	.LM65:
 573               	/* #APP */
 574               	 ;  157 "lcd/lcd.c" 1
 575 0298 8591      		lpm r24, Z+
 576 029a 9491      		lpm r25, Z
 577               		
 578               	 ;  0 "" 2
 579               	.LVL55:
 580               	/* #NOAPP */
 581               	.LBE40:
 582               	/* #APP */
 583               	 ;  157 "lcd/lcd.c" 1
 584 029c 9093 0041 		sts 16640,r25 
 585 02a0 8093 0041 		 sts 16640,r24
 586               	 ;  0 "" 2
 587               	/* #NOAPP */
 588 02a4 F901      		movw r30,r18
 589               	.LVL56:
 590 02a6 3896      		adiw r30,8
 591               	.LBB41:
 592               	.LM66:
 593               	/* #APP */
 594               	 ;  158 "lcd/lcd.c" 1
 595 02a8 8591      		lpm r24, Z+
 596 02aa 9491      		lpm r25, Z
 597               		
 598               	 ;  0 "" 2
 599               	.LVL57:
 600               	/* #NOAPP */
 601               	.LBE41:
 602               	/* #APP */
 603               	 ;  158 "lcd/lcd.c" 1
 604 02ac 9093 0041 		sts 16640,r25 
 605 02b0 8093 0041 		 sts 16640,r24
 606               	 ;  0 "" 2
 607               	/* #NOAPP */
 608 02b4 F901      		movw r30,r18
 609               	.LVL58:
 610 02b6 3A96      		adiw r30,10
 611               	.LBB42:
 612               	.LM67:
 613               	/* #APP */
 614               	 ;  159 "lcd/lcd.c" 1
 615 02b8 8591      		lpm r24, Z+
 616 02ba 9491      		lpm r25, Z
 617               		
 618               	 ;  0 "" 2
 619               	.LVL59:
 620               	/* #NOAPP */
 621               	.LBE42:
 622               	/* #APP */
 623               	 ;  159 "lcd/lcd.c" 1
 624 02bc 9093 0041 		sts 16640,r25 
 625 02c0 8093 0041 		 sts 16640,r24
 626               	 ;  0 "" 2
 627               	/* #NOAPP */
 628 02c4 F901      		movw r30,r18
 629               	.LVL60:
 630 02c6 3C96      		adiw r30,12
 631               	.LBB43:
 632               	.LM68:
 633               	/* #APP */
 634               	 ;  160 "lcd/lcd.c" 1
 635 02c8 8591      		lpm r24, Z+
 636 02ca 9491      		lpm r25, Z
 637               		
 638               	 ;  0 "" 2
 639               	.LVL61:
 640               	/* #NOAPP */
 641               	.LBE43:
 642               	/* #APP */
 643               	 ;  160 "lcd/lcd.c" 1
 644 02cc 9093 0041 		sts 16640,r25 
 645 02d0 8093 0041 		 sts 16640,r24
 646               	 ;  0 "" 2
 647               	/* #NOAPP */
 648 02d4 F901      		movw r30,r18
 649               	.LVL62:
 650 02d6 3E96      		adiw r30,14
 651 02d8 205F      		subi r18,lo8(-(16))
 652 02da 3F4F      		sbci r19,hi8(-(16))
 653               	.LBB44:
 654               	.LM69:
 655               	/* #APP */
 656               	 ;  161 "lcd/lcd.c" 1
 657 02dc 8591      		lpm r24, Z+
 658 02de 9491      		lpm r25, Z
 659               		
 660               	 ;  0 "" 2
 661               	.LVL63:
 662               	/* #NOAPP */
 663               	.LBE44:
 664               	/* #APP */
 665               	 ;  161 "lcd/lcd.c" 1
 666 02e0 9093 0041 		sts 16640,r25 
 667 02e4 8093 0041 		 sts 16640,r24
 668               	 ;  0 "" 2
 669               	/* #NOAPP */
 670 02e8 4150      		subi r20,lo8(-(-1))
 671 02ea 5040      		sbci r21,hi8(-(-1))
 672               	.LVL64:
 673               	.L22:
 674               	.LM70:
 675 02ec 4115      		cp r20,__zero_reg__
 676 02ee 5105      		cpc r21,__zero_reg__
 677 02f0 01F0      		breq .+2
 678 02f2 00C0      		rjmp .L23
 679               	/* epilogue start */
 680               	.LM71:
 681 02f4 1F91      		pop r17
 682 02f6 0F91      		pop r16
 683 02f8 0895      		ret
 684               	.LFE10:
 686               	.global	fill_image_pgm_2b
 688               	fill_image_pgm_2b:
 689               	.LFB11:
 690               	.LM72:
 691               	.LVL65:
 692 02fa EF92      		push r14
 693 02fc FF92      		push r15
 694 02fe 0F93      		push r16
 695               	.LVL66:
 696 0300 1F93      		push r17
 697 0302 CF93      		push r28
 698 0304 DF93      		push r29
 699               	/* prologue: function */
 700               	/* frame size = 0 */
 701 0306 F901      		movw r30,r18
 702               	.LM73:
 703 0308 2AE2      		ldi r18,lo8(42)
 704 030a 30E0      		ldi r19,hi8(42)
 705               	.LVL67:
 706               	/* #APP */
 707               	 ;  166 "lcd/lcd.c" 1
 708 030c 2093 0040 		sts 16384,r18
 709               	 ;  0 "" 2
 710               	.LM74:
 711               	 ;  167 "lcd/lcd.c" 1
 712 0310 9093 0041 		sts 16640,r25 
 713 0314 8093 0041 		 sts 16640,r24
 714               	 ;  0 "" 2
 715               	.LM75:
 716               	/* #NOAPP */
 717 0318 0197      		sbiw r24,1
 718               	.LVL68:
 719 031a 840F      		add r24,r20
 720 031c 951F      		adc r25,r21
 721               	/* #APP */
 722               	 ;  168 "lcd/lcd.c" 1
 723 031e 9093 0041 		sts 16640,r25 
 724 0322 8093 0041 		 sts 16640,r24
 725               	 ;  0 "" 2
 726               	.LM76:
 727               	/* #NOAPP */
 728 0326 8BE2      		ldi r24,lo8(43)
 729 0328 90E0      		ldi r25,hi8(43)
 730               	.LVL69:
 731               	/* #APP */
 732               	 ;  169 "lcd/lcd.c" 1
 733 032a 8093 0040 		sts 16384,r24
 734               	 ;  0 "" 2
 735               	.LM77:
 736               	 ;  170 "lcd/lcd.c" 1
 737 032e 7093 0041 		sts 16640,r23 
 738 0332 6093 0041 		 sts 16640,r22
 739               	 ;  0 "" 2
 740               	.LM78:
 741               	/* #NOAPP */
 742 0336 6150      		subi r22,lo8(-(-1))
 743 0338 7040      		sbci r23,hi8(-(-1))
 744               	.LVL70:
 745 033a 6E0F      		add r22,r30
 746 033c 7F1F      		adc r23,r31
 747               	/* #APP */
 748               	 ;  171 "lcd/lcd.c" 1
 749 033e 7093 0041 		sts 16640,r23 
 750 0342 6093 0041 		 sts 16640,r22
 751               	 ;  0 "" 2
 752               	.LM79:
 753               	/* #NOAPP */
 754 0346 8CE2      		ldi r24,lo8(44)
 755 0348 90E0      		ldi r25,hi8(44)
 756               	/* #APP */
 757               	 ;  172 "lcd/lcd.c" 1
 758 034a 8093 0040 		sts 16384,r24
 759               	 ;  0 "" 2
 760               	.LM80:
 761               	/* #NOAPP */
 762 034e 4E17      		cp r20,r30
 763 0350 5F07      		cpc r21,r31
 764 0352 00F4      		brsh .L26
 765               	.LM81:
 766 0354 8E2F      		mov r24,r30
 767               	.LVL71:
 768 0356 8770      		andi r24,lo8(7)
 769 0358 90E0      		ldi r25,lo8(0)
 770 035a 849F      		mul r24,r20
 771 035c D001      		movw r26,r0
 772 035e 859F      		mul r24,r21
 773 0360 B00D      		add r27,r0
 774 0362 949F      		mul r25,r20
 775 0364 B00D      		add r27,r0
 776 0366 1124      		clr r1
 777               	.LVL72:
 778               	.LM82:
 779 0368 23E0      		ldi r18,3
 780 036a F695      	1:	lsr r31
 781 036c E795      		ror r30
 782 036e 2A95      		dec r18
 783 0370 01F4      		brne 1b
 784               	.LVL73:
 785 0372 8E2F      		mov r24,r30
 786 0374 90E0      		ldi r25,lo8(0)
 787 0376 849F      		mul r24,r20
 788 0378 E001      		movw r28,r0
 789 037a 859F      		mul r24,r21
 790 037c D00D      		add r29,r0
 791 037e 949F      		mul r25,r20
 792 0380 D00D      		add r29,r0
 793 0382 1124      		clr r1
 794               	.LVL74:
 795 0384 00C0      		rjmp .L27
 796               	.LVL75:
 797               	.L26:
 798               	.LM83:
 799 0386 842F      		mov r24,r20
 800               	.LVL76:
 801 0388 8770      		andi r24,lo8(7)
 802 038a 90E0      		ldi r25,lo8(0)
 803 038c 8E9F      		mul r24,r30
 804 038e D001      		movw r26,r0
 805 0390 8F9F      		mul r24,r31
 806 0392 B00D      		add r27,r0
 807 0394 9E9F      		mul r25,r30
 808 0396 B00D      		add r27,r0
 809 0398 1124      		clr r1
 810               	.LVL77:
 811               	.LM84:
 812 039a 93E0      		ldi r25,3
 813 039c 5695      	1:	lsr r21
 814 039e 4795      		ror r20
 815 03a0 9A95      		dec r25
 816 03a2 01F4      		brne 1b
 817               	.LVL78:
 818 03a4 842F      		mov r24,r20
 819 03a6 90E0      		ldi r25,lo8(0)
 820 03a8 8E9F      		mul r24,r30
 821 03aa E001      		movw r28,r0
 822 03ac 8F9F      		mul r24,r31
 823 03ae D00D      		add r29,r0
 824 03b0 9E9F      		mul r25,r30
 825 03b2 D00D      		add r29,r0
 826 03b4 1124      		clr r1
 827               	.LVL79:
 828               	.L27:
 829               	.LM85:
 830 03b6 7A2F      		mov r23,r26
 831               	.LVL80:
 832 03b8 7770      		andi r23,lo8(7)
 833 03ba A801      		movw r20,r16
 834               	.LVL81:
 835 03bc 672F      		mov r22,r23
 836               	.LVL82:
 837 03be 00C0      		rjmp .L28
 838               	.LVL83:
 839               	.L29:
 840               	.LM86:
 841 03c0 7A01      		movw r14,r20
 842               	.LBB45:
 843               	.LM87:
 844 03c2 FA01      		movw r30,r20
 845               	.LVL84:
 846               	/* #APP */
 847               	 ;  195 "lcd/lcd.c" 1
 848 03c4 8591      		lpm r24, Z+
 849 03c6 9491      		lpm r25, Z
 850               		
 851               	 ;  0 "" 2
 852               	.LVL85:
 853               	/* #NOAPP */
 854               	.LBE45:
 855               	/* #APP */
 856               	 ;  195 "lcd/lcd.c" 1
 857 03c8 9093 0041 		sts 16640,r25 
 858 03cc 8093 0041 		 sts 16640,r24
 859               	 ;  0 "" 2
 860               	/* #NOAPP */
 861               	.LBB46:
 862               	.LM88:
 863 03d0 4E5F      		subi r20,lo8(-(2))
 864 03d2 5F4F      		sbci r21,hi8(-(2))
 865 03d4 F701      		movw r30,r14
 866               	.LVL86:
 867               	/* #APP */
 868               	 ;  196 "lcd/lcd.c" 1
 869 03d6 8591      		lpm r24, Z+
 870 03d8 9491      		lpm r25, Z
 871               		
 872               	 ;  0 "" 2
 873               	.LVL87:
 874               	/* #NOAPP */
 875               	.LBE46:
 876               	/* #APP */
 877               	 ;  196 "lcd/lcd.c" 1
 878 03da 9093 0041 		sts 16640,r25 
 879 03de 8093 0041 		 sts 16640,r24
 880               	 ;  0 "" 2
 881               	/* #NOAPP */
 882 03e2 6150      		subi r22,lo8(-(-1))
 883               	.LVL88:
 884               	.L28:
 885               	.LM89:
 886 03e4 6623      		tst r22
 887 03e6 01F4      		brne .L29
 888 03e8 272F      		mov r18,r23
 889               	.LVL89:
 890 03ea 30E0      		ldi r19,lo8(0)
 891               	.LVL90:
 892 03ec 220F      		lsl r18
 893 03ee 331F      		rol r19
 894               	.LVL91:
 895 03f0 200F      		add r18,r16
 896 03f2 311F      		adc r19,r17
 897               	.LM90:
 898 03f4 AD01      		movw r20,r26
 899               	.LVL92:
 900 03f6 A3E0      		ldi r26,3
 901 03f8 5695      	1:	lsr r21
 902 03fa 4795      		ror r20
 903 03fc AA95      		dec r26
 904 03fe 01F4      		brne 1b
 905               	.LVL93:
 906 0400 4C0F      		add r20,r28
 907 0402 5D1F      		adc r21,r29
 908 0404 00C0      		rjmp .L30
 909               	.LVL94:
 910               	.L31:
 911               	.LBB47:
 912               	.LM91:
 913 0406 F901      		movw r30,r18
 914               	.LVL95:
 915               	/* #APP */
 916               	 ;  201 "lcd/lcd.c" 1
 917 0408 8591      		lpm r24, Z+
 918 040a 9491      		lpm r25, Z
 919               		
 920               	 ;  0 "" 2
 921               	.LVL96:
 922               	/* #NOAPP */
 923               	.LBE47:
 924               	.LM92:
 925               	/* #APP */
 926               	 ;  202 "lcd/lcd.c" 1
 927 040c 9093 0041 		sts 16640,r25 
 928 0410 8093 0041 		 sts 16640,r24
 929               	 ;  0 "" 2
 930               	.LM93:
 931               	 ;  203 "lcd/lcd.c" 1
 932 0414 9093 0041 		sts 16640,r25 
 933 0418 8093 0041 		 sts 16640,r24
 934               	 ;  0 "" 2
 935               	/* #NOAPP */
 936 041c F901      		movw r30,r18
 937               	.LVL97:
 938 041e 3296      		adiw r30,2
 939               	.LBB48:
 940               	.LM94:
 941               	/* #APP */
 942               	 ;  204 "lcd/lcd.c" 1
 943 0420 8591      		lpm r24, Z+
 944 0422 9491      		lpm r25, Z
 945               		
 946               	 ;  0 "" 2
 947               	.LVL98:
 948               	/* #NOAPP */
 949               	.LBE48:
 950               	.LM95:
 951               	/* #APP */
 952               	 ;  205 "lcd/lcd.c" 1
 953 0424 9093 0041 		sts 16640,r25 
 954 0428 8093 0041 		 sts 16640,r24
 955               	 ;  0 "" 2
 956               	.LM96:
 957               	 ;  206 "lcd/lcd.c" 1
 958 042c 9093 0041 		sts 16640,r25 
 959 0430 8093 0041 		 sts 16640,r24
 960               	 ;  0 "" 2
 961               	/* #NOAPP */
 962 0434 F901      		movw r30,r18
 963               	.LVL99:
 964 0436 3496      		adiw r30,4
 965               	.LBB49:
 966               	.LM97:
 967               	/* #APP */
 968               	 ;  207 "lcd/lcd.c" 1
 969 0438 8591      		lpm r24, Z+
 970 043a 9491      		lpm r25, Z
 971               		
 972               	 ;  0 "" 2
 973               	.LVL100:
 974               	/* #NOAPP */
 975               	.LBE49:
 976               	.LM98:
 977               	/* #APP */
 978               	 ;  208 "lcd/lcd.c" 1
 979 043c 9093 0041 		sts 16640,r25 
 980 0440 8093 0041 		 sts 16640,r24
 981               	 ;  0 "" 2
 982               	.LM99:
 983               	 ;  209 "lcd/lcd.c" 1
 984 0444 9093 0041 		sts 16640,r25 
 985 0448 8093 0041 		 sts 16640,r24
 986               	 ;  0 "" 2
 987               	/* #NOAPP */
 988 044c F901      		movw r30,r18
 989               	.LVL101:
 990 044e 3696      		adiw r30,6
 991 0450 285F      		subi r18,lo8(-(8))
 992 0452 3F4F      		sbci r19,hi8(-(8))
 993               	.LBB50:
 994               	.LM100:
 995               	/* #APP */
 996               	 ;  210 "lcd/lcd.c" 1
 997 0454 8591      		lpm r24, Z+
 998 0456 9491      		lpm r25, Z
 999               		
 1000               	 ;  0 "" 2
 1001               	.LVL102:
 1002               	/* #NOAPP */
 1003               	.LBE50:
 1004               	.LM101:
 1005               	/* #APP */
 1006               	 ;  211 "lcd/lcd.c" 1
 1007 0458 9093 0041 		sts 16640,r25 
 1008 045c 8093 0041 		 sts 16640,r24
 1009               	 ;  0 "" 2
 1010               	.LM102:
 1011               	 ;  212 "lcd/lcd.c" 1
 1012 0460 9093 0041 		sts 16640,r25 
 1013 0464 8093 0041 		 sts 16640,r24
 1014               	 ;  0 "" 2
 1015               	/* #NOAPP */
 1016 0468 4150      		subi r20,lo8(-(-1))
 1017 046a 5040      		sbci r21,hi8(-(-1))
 1018               	.LVL103:
 1019               	.L30:
 1020               	.LM103:
 1021 046c 4115      		cp r20,__zero_reg__
 1022 046e 5105      		cpc r21,__zero_reg__
 1023 0470 01F0      		breq .+2
 1024 0472 00C0      		rjmp .L31
 1025               	/* epilogue start */
 1026               	.LM104:
 1027 0474 DF91      		pop r29
 1028 0476 CF91      		pop r28
 1029               	.LVL104:
 1030 0478 1F91      		pop r17
 1031 047a 0F91      		pop r16
 1032 047c FF90      		pop r15
 1033 047e EF90      		pop r14
 1034               	.LVL105:
 1035 0480 0895      		ret
 1036               	.LFE11:
 1038               	.global	fill_image
 1040               	fill_image:
 1041               	.LFB12:
 1042               	.LM105:
 1043               	.LVL106:
 1044 0482 0F93      		push r16
 1045               	.LVL107:
 1046 0484 1F93      		push r17
 1047               	/* prologue: function */
 1048               	/* frame size = 0 */
 1049               	.LM106:
 1050 0486 EAE2      		ldi r30,lo8(42)
 1051 0488 F0E0      		ldi r31,hi8(42)
 1052               	/* #APP */
 1053               	 ;  217 "lcd/lcd.c" 1
 1054 048a E093 0040 		sts 16384,r30
 1055               	 ;  0 "" 2
 1056               	.LM107:
 1057               	 ;  218 "lcd/lcd.c" 1
 1058 048e 9093 0041 		sts 16640,r25 
 1059 0492 8093 0041 		 sts 16640,r24
 1060               	 ;  0 "" 2
 1061               	.LM108:
 1062               	/* #NOAPP */
 1063 0496 840F      		add r24,r20
 1064 0498 951F      		adc r25,r21
 1065               	.LVL108:
 1066               	/* #APP */
 1067               	 ;  219 "lcd/lcd.c" 1
 1068 049a 9093 0041 		sts 16640,r25 
 1069 049e 8093 0041 		 sts 16640,r24
 1070               	 ;  0 "" 2
 1071               	.LM109:
 1072               	/* #NOAPP */
 1073 04a2 8BE2      		ldi r24,lo8(43)
 1074 04a4 90E0      		ldi r25,hi8(43)
 1075               	.LVL109:
 1076               	/* #APP */
 1077               	 ;  220 "lcd/lcd.c" 1
 1078 04a6 8093 0040 		sts 16384,r24
 1079               	 ;  0 "" 2
 1080               	.LM110:
 1081               	 ;  221 "lcd/lcd.c" 1
 1082 04aa 7093 0041 		sts 16640,r23 
 1083 04ae 6093 0041 		 sts 16640,r22
 1084               	 ;  0 "" 2
 1085               	.LM111:
 1086               	/* #NOAPP */
 1087 04b2 620F      		add r22,r18
 1088 04b4 731F      		adc r23,r19
 1089               	.LVL110:
 1090               	/* #APP */
 1091               	 ;  222 "lcd/lcd.c" 1
 1092 04b6 7093 0041 		sts 16640,r23 
 1093 04ba 6093 0041 		 sts 16640,r22
 1094               	 ;  0 "" 2
 1095               	.LM112:
 1096               	/* #NOAPP */
 1097 04be 8CE2      		ldi r24,lo8(44)
 1098 04c0 90E0      		ldi r25,hi8(44)
 1099               	/* #APP */
 1100               	 ;  223 "lcd/lcd.c" 1
 1101 04c2 8093 0040 		sts 16384,r24
 1102               	 ;  0 "" 2
 1103               	.LM113:
 1104               	/* #NOAPP */
 1105 04c6 4F5F      		subi r20,lo8(-(1))
 1106 04c8 5F4F      		sbci r21,hi8(-(1))
 1107               	.LVL111:
 1108               	.LM114:
 1109 04ca 2F5F      		subi r18,lo8(-(1))
 1110 04cc 3F4F      		sbci r19,hi8(-(1))
 1111               	.LVL112:
 1112               	.LM115:
 1113 04ce 4217      		cp r20,r18
 1114 04d0 5307      		cpc r21,r19
 1115 04d2 00F4      		brsh .L34
 1116               	.LM116:
 1117 04d4 822F      		mov r24,r18
 1118               	.LVL113:
 1119 04d6 8770      		andi r24,lo8(7)
 1120 04d8 90E0      		ldi r25,lo8(0)
 1121 04da 849F      		mul r24,r20
 1122 04dc B001      		movw r22,r0
 1123 04de 859F      		mul r24,r21
 1124 04e0 700D      		add r23,r0
 1125 04e2 949F      		mul r25,r20
 1126 04e4 700D      		add r23,r0
 1127 04e6 1124      		clr r1
 1128               	.LVL114:
 1129               	.LM117:
 1130 04e8 F3E0      		ldi r31,3
 1131 04ea 3695      	1:	lsr r19
 1132 04ec 2795      		ror r18
 1133 04ee FA95      		dec r31
 1134 04f0 01F4      		brne 1b
 1135               	.LVL115:
 1136 04f2 822F      		mov r24,r18
 1137 04f4 90E0      		ldi r25,lo8(0)
 1138 04f6 849F      		mul r24,r20
 1139 04f8 D001      		movw r26,r0
 1140 04fa 859F      		mul r24,r21
 1141 04fc B00D      		add r27,r0
 1142 04fe 949F      		mul r25,r20
 1143 0500 B00D      		add r27,r0
 1144 0502 1124      		clr r1
 1145               	.LVL116:
 1146 0504 00C0      		rjmp .L35
 1147               	.LVL117:
 1148               	.L34:
 1149               	.LM118:
 1150 0506 842F      		mov r24,r20
 1151               	.LVL118:
 1152 0508 8770      		andi r24,lo8(7)
 1153 050a 90E0      		ldi r25,lo8(0)
 1154 050c 829F      		mul r24,r18
 1155 050e B001      		movw r22,r0
 1156 0510 839F      		mul r24,r19
 1157 0512 700D      		add r23,r0
 1158 0514 929F      		mul r25,r18
 1159 0516 700D      		add r23,r0
 1160 0518 1124      		clr r1
 1161               	.LVL119:
 1162               	.LM119:
 1163 051a E3E0      		ldi r30,3
 1164 051c 5695      	1:	lsr r21
 1165 051e 4795      		ror r20
 1166 0520 EA95      		dec r30
 1167 0522 01F4      		brne 1b
 1168               	.LVL120:
 1169 0524 842F      		mov r24,r20
 1170 0526 90E0      		ldi r25,lo8(0)
 1171 0528 829F      		mul r24,r18
 1172 052a D001      		movw r26,r0
 1173 052c 839F      		mul r24,r19
 1174 052e B00D      		add r27,r0
 1175 0530 929F      		mul r25,r18
 1176 0532 B00D      		add r27,r0
 1177 0534 1124      		clr r1
 1178               	.LVL121:
 1179               	.L35:
 1180               	.LM120:
 1181 0536 362F      		mov r19,r22
 1182               	.LVL122:
 1183 0538 3770      		andi r19,lo8(7)
 1184 053a F801      		movw r30,r16
 1185               	.LVL123:
 1186 053c 232F      		mov r18,r19
 1187               	.LVL124:
 1188 053e 00C0      		rjmp .L36
 1189               	.LVL125:
 1190               	.L37:
 1191               	.LM121:
 1192 0540 8191      		ld r24,Z+
 1193 0542 9191      		ld r25,Z+
 1194               	/* #APP */
 1195               	 ;  246 "lcd/lcd.c" 1
 1196 0544 9093 0041 		sts 16640,r25 
 1197 0548 8093 0041 		 sts 16640,r24
 1198               	 ;  0 "" 2
 1199               	/* #NOAPP */
 1200 054c 2150      		subi r18,lo8(-(-1))
 1201               	.LVL126:
 1202               	.L36:
 1203               	.LM122:
 1204 054e 2223      		tst r18
 1205 0550 01F4      		brne .L37
 1206 0552 E32F      		mov r30,r19
 1207               	.LVL127:
 1208 0554 F0E0      		ldi r31,lo8(0)
 1209               	.LVL128:
 1210 0556 EE0F      		lsl r30
 1211 0558 FF1F      		rol r31
 1212               	.LVL129:
 1213 055a E00F      		add r30,r16
 1214 055c F11F      		adc r31,r17
 1215               	.LM123:
 1216 055e 9B01      		movw r18,r22
 1217               	.LVL130:
 1218 0560 43E0      		ldi r20,3
 1219 0562 3695      	1:	lsr r19
 1220 0564 2795      		ror r18
 1221 0566 4A95      		dec r20
 1222 0568 01F4      		brne 1b
 1223               	.LVL131:
 1224 056a 2A0F      		add r18,r26
 1225 056c 3B1F      		adc r19,r27
 1226 056e 00C0      		rjmp .L38
 1227               	.L39:
 1228               	.LM124:
 1229 0570 8081      		ld r24,Z
 1230 0572 9181      		ldd r25,Z+1
 1231               	/* #APP */
 1232               	 ;  250 "lcd/lcd.c" 1
 1233 0574 9093 0041 		sts 16640,r25 
 1234 0578 8093 0041 		 sts 16640,r24
 1235               	 ;  0 "" 2
 1236               	.LM125:
 1237               	/* #NOAPP */
 1238 057c 8281      		ldd r24,Z+2
 1239 057e 9381      		ldd r25,Z+3
 1240               	/* #APP */
 1241               	 ;  251 "lcd/lcd.c" 1
 1242 0580 9093 0041 		sts 16640,r25 
 1243 0584 8093 0041 		 sts 16640,r24
 1244               	 ;  0 "" 2
 1245               	.LM126:
 1246               	/* #NOAPP */
 1247 0588 8481      		ldd r24,Z+4
 1248 058a 9581      		ldd r25,Z+5
 1249               	/* #APP */
 1250               	 ;  252 "lcd/lcd.c" 1
 1251 058c 9093 0041 		sts 16640,r25 
 1252 0590 8093 0041 		 sts 16640,r24
 1253               	 ;  0 "" 2
 1254               	.LM127:
 1255               	/* #NOAPP */
 1256 0594 8681      		ldd r24,Z+6
 1257 0596 9781      		ldd r25,Z+7
 1258               	/* #APP */
 1259               	 ;  253 "lcd/lcd.c" 1
 1260 0598 9093 0041 		sts 16640,r25 
 1261 059c 8093 0041 		 sts 16640,r24
 1262               	 ;  0 "" 2
 1263               	.LM128:
 1264               	/* #NOAPP */
 1265 05a0 8085      		ldd r24,Z+8
 1266 05a2 9185      		ldd r25,Z+9
 1267               	/* #APP */
 1268               	 ;  254 "lcd/lcd.c" 1
 1269 05a4 9093 0041 		sts 16640,r25 
 1270 05a8 8093 0041 		 sts 16640,r24
 1271               	 ;  0 "" 2
 1272               	.LM129:
 1273               	/* #NOAPP */
 1274 05ac 8285      		ldd r24,Z+10
 1275 05ae 9385      		ldd r25,Z+11
 1276               	/* #APP */
 1277               	 ;  255 "lcd/lcd.c" 1
 1278 05b0 9093 0041 		sts 16640,r25 
 1279 05b4 8093 0041 		 sts 16640,r24
 1280               	 ;  0 "" 2
 1281               	.LM130:
 1282               	/* #NOAPP */
 1283 05b8 8485      		ldd r24,Z+12
 1284 05ba 9585      		ldd r25,Z+13
 1285               	/* #APP */
 1286               	 ;  256 "lcd/lcd.c" 1
 1287 05bc 9093 0041 		sts 16640,r25 
 1288 05c0 8093 0041 		 sts 16640,r24
 1289               	 ;  0 "" 2
 1290               	.LM131:
 1291               	/* #NOAPP */
 1292 05c4 8685      		ldd r24,Z+14
 1293 05c6 9785      		ldd r25,Z+15
 1294               	/* #APP */
 1295               	 ;  257 "lcd/lcd.c" 1
 1296 05c8 9093 0041 		sts 16640,r25 
 1297 05cc 8093 0041 		 sts 16640,r24
 1298               	 ;  0 "" 2
 1299               	.LM132:
 1300               	/* #NOAPP */
 1301 05d0 7096      		adiw r30,16
 1302 05d2 2150      		subi r18,lo8(-(-1))
 1303 05d4 3040      		sbci r19,hi8(-(-1))
 1304               	.L38:
 1305               	.LM133:
 1306 05d6 2115      		cp r18,__zero_reg__
 1307 05d8 3105      		cpc r19,__zero_reg__
 1308 05da 01F4      		brne .L39
 1309               	/* epilogue start */
 1310               	.LM134:
 1311 05dc 1F91      		pop r17
 1312 05de 0F91      		pop r16
 1313 05e0 0895      		ret
 1314               	.LFE12:
 1316               	.global	fill_rectangle
 1318               	fill_rectangle:
 1319               	.LFB13:
 1320               	.LM135:
 1321               	.LVL132:
 1322 05e2 0F93      		push r16
 1323               	.LVL133:
 1324 05e4 1F93      		push r17
 1325 05e6 DF93      		push r29
 1326 05e8 CF93      		push r28
 1327 05ea CDB7      		in r28,__SP_L__
 1328 05ec DEB7      		in r29,__SP_H__
 1329 05ee 2897      		sbiw r28,8
 1330 05f0 0FB6      		in __tmp_reg__,__SREG__
 1331 05f2 F894      		cli
 1332 05f4 DEBF      		out __SP_H__,r29
 1333 05f6 0FBE      		out __SREG__,__tmp_reg__
 1334 05f8 CDBF      		out __SP_L__,r28
 1335               	/* prologue: function */
 1336               	/* frame size = 8 */
 1337 05fa 2983      		std Y+1,r18
 1338 05fc 3A83      		std Y+2,r19
 1339 05fe 4B83      		std Y+3,r20
 1340 0600 5C83      		std Y+4,r21
 1341 0602 6D83      		std Y+5,r22
 1342 0604 7E83      		std Y+6,r23
 1343 0606 8F83      		std Y+7,r24
 1344 0608 9887      		std Y+8,r25
 1345               	.LM136:
 1346 060a 6981      		ldd r22,Y+1
 1347 060c 7A81      		ldd r23,Y+2
 1348 060e 2B81      		ldd r18,Y+3
 1349 0610 3C81      		ldd r19,Y+4
 1350 0612 ED81      		ldd r30,Y+5
 1351 0614 FE81      		ldd r31,Y+6
 1352 0616 4F81      		ldd r20,Y+7
 1353 0618 5885      		ldd r21,Y+8
 1354               	.LM137:
 1355 061a 8AE2      		ldi r24,lo8(42)
 1356 061c 90E0      		ldi r25,hi8(42)
 1357               	/* #APP */
 1358               	 ;  262 "lcd/lcd.c" 1
 1359 061e 8093 0040 		sts 16384,r24
 1360               	 ;  0 "" 2
 1361               	.LM138:
 1362               	 ;  263 "lcd/lcd.c" 1
 1363 0622 7093 0041 		sts 16640,r23 
 1364 0626 6093 0041 		 sts 16640,r22
 1365               	 ;  0 "" 2
 1366               	.LM139:
 1367               	 ;  264 "lcd/lcd.c" 1
 1368 062a 3093 0041 		sts 16640,r19 
 1369 062e 2093 0041 		 sts 16640,r18
 1370               	 ;  0 "" 2
 1371               	.LM140:
 1372               	/* #NOAPP */
 1373 0632 8BE2      		ldi r24,lo8(43)
 1374 0634 90E0      		ldi r25,hi8(43)
 1375               	/* #APP */
 1376               	 ;  265 "lcd/lcd.c" 1
 1377 0636 8093 0040 		sts 16384,r24
 1378               	 ;  0 "" 2
 1379               	.LM141:
 1380               	 ;  266 "lcd/lcd.c" 1
 1381 063a F093 0041 		sts 16640,r31 
 1382 063e E093 0041 		 sts 16640,r30
 1383               	 ;  0 "" 2
 1384               	.LM142:
 1385               	 ;  267 "lcd/lcd.c" 1
 1386 0642 5093 0041 		sts 16640,r21 
 1387 0646 4093 0041 		 sts 16640,r20
 1388               	 ;  0 "" 2
 1389               	.LM143:
 1390               	/* #NOAPP */
 1391 064a 8CE2      		ldi r24,lo8(44)
 1392 064c 90E0      		ldi r25,hi8(44)
 1393               	/* #APP */
 1394               	 ;  268 "lcd/lcd.c" 1
 1395 064e 8093 0040 		sts 16384,r24
 1396               	 ;  0 "" 2
 1397               	.LM144:
 1398               	/* #NOAPP */
 1399 0652 2F5F      		subi r18,lo8(-(1))
 1400 0654 3F4F      		sbci r19,hi8(-(1))
 1401               	.LVL134:
 1402 0656 261B      		sub r18,r22
 1403 0658 370B      		sbc r19,r23
 1404               	.LM145:
 1405 065a 4F5F      		subi r20,lo8(-(1))
 1406 065c 5F4F      		sbci r21,hi8(-(1))
 1407               	.LVL135:
 1408 065e 4E1B      		sub r20,r30
 1409 0660 5F0B      		sbc r21,r31
 1410               	.LM146:
 1411 0662 2417      		cp r18,r20
 1412 0664 3507      		cpc r19,r21
 1413 0666 00F4      		brsh .L42
 1414               	.LM147:
 1415 0668 842F      		mov r24,r20
 1416               	.LVL136:
 1417 066a 8770      		andi r24,lo8(7)
 1418 066c 90E0      		ldi r25,lo8(0)
 1419 066e 829F      		mul r24,r18
 1420 0670 B001      		movw r22,r0
 1421 0672 839F      		mul r24,r19
 1422 0674 700D      		add r23,r0
 1423 0676 929F      		mul r25,r18
 1424 0678 700D      		add r23,r0
 1425 067a 1124      		clr r1
 1426               	.LVL137:
 1427               	.LM148:
 1428 067c 83E0      		ldi r24,3
 1429 067e 5695      	1:	lsr r21
 1430 0680 4795      		ror r20
 1431 0682 8A95      		dec r24
 1432 0684 01F4      		brne 1b
 1433               	.LVL138:
 1434 0686 842F      		mov r24,r20
 1435 0688 90E0      		ldi r25,lo8(0)
 1436 068a 829F      		mul r24,r18
 1437 068c F001      		movw r30,r0
 1438 068e 839F      		mul r24,r19
 1439 0690 F00D      		add r31,r0
 1440 0692 929F      		mul r25,r18
 1441 0694 F00D      		add r31,r0
 1442 0696 1124      		clr r1
 1443               	.LVL139:
 1444 0698 00C0      		rjmp .L43
 1445               	.LVL140:
 1446               	.L42:
 1447               	.LM149:
 1448 069a 822F      		mov r24,r18
 1449               	.LVL141:
 1450 069c 8770      		andi r24,lo8(7)
 1451 069e 90E0      		ldi r25,lo8(0)
 1452 06a0 849F      		mul r24,r20
 1453 06a2 B001      		movw r22,r0
 1454 06a4 859F      		mul r24,r21
 1455 06a6 700D      		add r23,r0
 1456 06a8 949F      		mul r25,r20
 1457 06aa 700D      		add r23,r0
 1458 06ac 1124      		clr r1
 1459               	.LVL142:
 1460               	.LM150:
 1461 06ae B3E0      		ldi r27,3
 1462 06b0 3695      	1:	lsr r19
 1463 06b2 2795      		ror r18
 1464 06b4 BA95      		dec r27
 1465 06b6 01F4      		brne 1b
 1466               	.LVL143:
 1467 06b8 822F      		mov r24,r18
 1468 06ba 90E0      		ldi r25,lo8(0)
 1469 06bc 849F      		mul r24,r20
 1470 06be F001      		movw r30,r0
 1471 06c0 859F      		mul r24,r21
 1472 06c2 F00D      		add r31,r0
 1473 06c4 949F      		mul r25,r20
 1474 06c6 F00D      		add r31,r0
 1475 06c8 1124      		clr r1
 1476               	.LVL144:
 1477               	.L43:
 1478               	.LM151:
 1479 06ca 862F      		mov r24,r22
 1480               	.LVL145:
 1481 06cc 8770      		andi r24,lo8(7)
 1482 06ce 00C0      		rjmp .L44
 1483               	.LVL146:
 1484               	.L45:
 1485               	.LM152:
 1486               	/* #APP */
 1487               	 ;  291 "lcd/lcd.c" 1
 1488 06d0 1093 0041 		sts 16640,r17 
 1489 06d4 0093 0041 		 sts 16640,r16
 1490               	 ;  0 "" 2
 1491               	/* #NOAPP */
 1492 06d8 8150      		subi r24,lo8(-(-1))
 1493               	.L44:
 1494               	.LM153:
 1495 06da 8823      		tst r24
 1496 06dc 01F4      		brne .L45
 1497               	.LM154:
 1498 06de CB01      		movw r24,r22
 1499               	.LVL147:
 1500 06e0 A3E0      		ldi r26,3
 1501 06e2 9695      	1:	lsr r25
 1502 06e4 8795      		ror r24
 1503 06e6 AA95      		dec r26
 1504 06e8 01F4      		brne 1b
 1505 06ea 8E0F      		add r24,r30
 1506 06ec 9F1F      		adc r25,r31
 1507 06ee 00C0      		rjmp .L46
 1508               	.L47:
 1509               	.LM155:
 1510               	/* #APP */
 1511               	 ;  295 "lcd/lcd.c" 1
 1512 06f0 1093 0041 		sts 16640,r17 
 1513 06f4 0093 0041 		 sts 16640,r16
 1514               	 ;  0 "" 2
 1515               	.LM156:
 1516               	 ;  296 "lcd/lcd.c" 1
 1517 06f8 1093 0041 		sts 16640,r17 
 1518 06fc 0093 0041 		 sts 16640,r16
 1519               	 ;  0 "" 2
 1520               	.LM157:
 1521               	 ;  297 "lcd/lcd.c" 1
 1522 0700 1093 0041 		sts 16640,r17 
 1523 0704 0093 0041 		 sts 16640,r16
 1524               	 ;  0 "" 2
 1525               	.LM158:
 1526               	 ;  298 "lcd/lcd.c" 1
 1527 0708 1093 0041 		sts 16640,r17 
 1528 070c 0093 0041 		 sts 16640,r16
 1529               	 ;  0 "" 2
 1530               	.LM159:
 1531               	 ;  299 "lcd/lcd.c" 1
 1532 0710 1093 0041 		sts 16640,r17 
 1533 0714 0093 0041 		 sts 16640,r16
 1534               	 ;  0 "" 2
 1535               	.LM160:
 1536               	 ;  300 "lcd/lcd.c" 1
 1537 0718 1093 0041 		sts 16640,r17 
 1538 071c 0093 0041 		 sts 16640,r16
 1539               	 ;  0 "" 2
 1540               	.LM161:
 1541               	 ;  301 "lcd/lcd.c" 1
 1542 0720 1093 0041 		sts 16640,r17 
 1543 0724 0093 0041 		 sts 16640,r16
 1544               	 ;  0 "" 2
 1545               	.LM162:
 1546               	 ;  302 "lcd/lcd.c" 1
 1547 0728 1093 0041 		sts 16640,r17 
 1548 072c 0093 0041 		 sts 16640,r16
 1549               	 ;  0 "" 2
 1550               	/* #NOAPP */
 1551 0730 0197      		sbiw r24,1
 1552               	.L46:
 1553               	.LM163:
 1554 0732 0097      		sbiw r24,0
 1555 0734 01F4      		brne .L47
 1556               	/* epilogue start */
 1557               	.LM164:
 1558 0736 2896      		adiw r28,8
 1559 0738 0FB6      		in __tmp_reg__,__SREG__
 1560 073a F894      		cli
 1561 073c DEBF      		out __SP_H__,r29
 1562 073e 0FBE      		out __SREG__,__tmp_reg__
 1563 0740 CDBF      		out __SP_L__,r28
 1564 0742 CF91      		pop r28
 1565 0744 DF91      		pop r29
 1566 0746 1F91      		pop r17
 1567 0748 0F91      		pop r16
 1568               	.LVL148:
 1569 074a 0895      		ret
 1570               	.LFE13:
 1572               	.global	fill_rectangle_c
 1574               	fill_rectangle_c:
 1575               	.LFB14:
 1576               	.LM165:
 1577               	.LVL149:
 1578 074c 0F93      		push r16
 1579               	.LVL150:
 1580 074e 1F93      		push r17
 1581               	/* prologue: function */
 1582               	/* frame size = 0 */
 1583               	.LM166:
 1584 0750 EAE2      		ldi r30,lo8(42)
 1585 0752 F0E0      		ldi r31,hi8(42)
 1586               	/* #APP */
 1587               	 ;  307 "lcd/lcd.c" 1
 1588 0754 E093 0040 		sts 16384,r30
 1589               	 ;  0 "" 2
 1590               	.LM167:
 1591               	 ;  308 "lcd/lcd.c" 1
 1592 0758 9093 0041 		sts 16640,r25 
 1593 075c 8093 0041 		 sts 16640,r24
 1594               	 ;  0 "" 2
 1595               	.LM168:
 1596               	/* #NOAPP */
 1597 0760 840F      		add r24,r20
 1598 0762 951F      		adc r25,r21
 1599               	.LVL151:
 1600               	/* #APP */
 1601               	 ;  309 "lcd/lcd.c" 1
 1602 0764 9093 0041 		sts 16640,r25 
 1603 0768 8093 0041 		 sts 16640,r24
 1604               	 ;  0 "" 2
 1605               	.LM169:
 1606               	/* #NOAPP */
 1607 076c 8BE2      		ldi r24,lo8(43)
 1608 076e 90E0      		ldi r25,hi8(43)
 1609               	.LVL152:
 1610               	/* #APP */
 1611               	 ;  310 "lcd/lcd.c" 1
 1612 0770 8093 0040 		sts 16384,r24
 1613               	 ;  0 "" 2
 1614               	.LM170:
 1615               	 ;  311 "lcd/lcd.c" 1
 1616 0774 7093 0041 		sts 16640,r23 
 1617 0778 6093 0041 		 sts 16640,r22
 1618               	 ;  0 "" 2
 1619               	.LM171:
 1620               	/* #NOAPP */
 1621 077c 620F      		add r22,r18
 1622 077e 731F      		adc r23,r19
 1623               	.LVL153:
 1624               	/* #APP */
 1625               	 ;  312 "lcd/lcd.c" 1
 1626 0780 7093 0041 		sts 16640,r23 
 1627 0784 6093 0041 		 sts 16640,r22
 1628               	 ;  0 "" 2
 1629               	.LM172:
 1630               	/* #NOAPP */
 1631 0788 8CE2      		ldi r24,lo8(44)
 1632 078a 90E0      		ldi r25,hi8(44)
 1633               	/* #APP */
 1634               	 ;  313 "lcd/lcd.c" 1
 1635 078c 8093 0040 		sts 16384,r24
 1636               	 ;  0 "" 2
 1637               	.LM173:
 1638               	/* #NOAPP */
 1639 0790 4F5F      		subi r20,lo8(-(1))
 1640 0792 5F4F      		sbci r21,hi8(-(1))
 1641               	.LVL154:
 1642               	.LM174:
 1643 0794 2F5F      		subi r18,lo8(-(1))
 1644 0796 3F4F      		sbci r19,hi8(-(1))
 1645               	.LVL155:
 1646               	.LM175:
 1647 0798 4217      		cp r20,r18
 1648 079a 5307      		cpc r21,r19
 1649 079c 00F4      		brsh .L50
 1650               	.LM176:
 1651 079e 822F      		mov r24,r18
 1652               	.LVL156:
 1653 07a0 8770      		andi r24,lo8(7)
 1654 07a2 90E0      		ldi r25,lo8(0)
 1655 07a4 849F      		mul r24,r20
 1656 07a6 B001      		movw r22,r0
 1657 07a8 859F      		mul r24,r21
 1658 07aa 700D      		add r23,r0
 1659 07ac 949F      		mul r25,r20
 1660 07ae 700D      		add r23,r0
 1661 07b0 1124      		clr r1
 1662               	.LVL157:
 1663               	.LM177:
 1664 07b2 F3E0      		ldi r31,3
 1665 07b4 3695      	1:	lsr r19
 1666 07b6 2795      		ror r18
 1667 07b8 FA95      		dec r31
 1668 07ba 01F4      		brne 1b
 1669               	.LVL158:
 1670 07bc 822F      		mov r24,r18
 1671 07be 90E0      		ldi r25,lo8(0)
 1672 07c0 849F      		mul r24,r20
 1673 07c2 F001      		movw r30,r0
 1674 07c4 859F      		mul r24,r21
 1675 07c6 F00D      		add r31,r0
 1676 07c8 949F      		mul r25,r20
 1677 07ca F00D      		add r31,r0
 1678 07cc 1124      		clr r1
 1679               	.LVL159:
 1680 07ce 00C0      		rjmp .L51
 1681               	.LVL160:
 1682               	.L50:
 1683               	.LM178:
 1684 07d0 842F      		mov r24,r20
 1685               	.LVL161:
 1686 07d2 8770      		andi r24,lo8(7)
 1687 07d4 90E0      		ldi r25,lo8(0)
 1688 07d6 829F      		mul r24,r18
 1689 07d8 B001      		movw r22,r0
 1690 07da 839F      		mul r24,r19
 1691 07dc 700D      		add r23,r0
 1692 07de 929F      		mul r25,r18
 1693 07e0 700D      		add r23,r0
 1694 07e2 1124      		clr r1
 1695               	.LVL162:
 1696               	.LM179:
 1697 07e4 E3E0      		ldi r30,3
 1698 07e6 5695      	1:	lsr r21
 1699 07e8 4795      		ror r20
 1700 07ea EA95      		dec r30
 1701 07ec 01F4      		brne 1b
 1702               	.LVL163:
 1703 07ee 842F      		mov r24,r20
 1704 07f0 90E0      		ldi r25,lo8(0)
 1705 07f2 829F      		mul r24,r18
 1706 07f4 F001      		movw r30,r0
 1707 07f6 839F      		mul r24,r19
 1708 07f8 F00D      		add r31,r0
 1709 07fa 929F      		mul r25,r18
 1710 07fc F00D      		add r31,r0
 1711 07fe 1124      		clr r1
 1712               	.LVL164:
 1713               	.L51:
 1714               	.LM180:
 1715 0800 862F      		mov r24,r22
 1716               	.LVL165:
 1717 0802 8770      		andi r24,lo8(7)
 1718 0804 00C0      		rjmp .L52
 1719               	.LVL166:
 1720               	.L53:
 1721               	.LM181:
 1722               	/* #APP */
 1723               	 ;  336 "lcd/lcd.c" 1
 1724 0806 1093 0041 		sts 16640,r17 
 1725 080a 0093 0041 		 sts 16640,r16
 1726               	 ;  0 "" 2
 1727               	/* #NOAPP */
 1728 080e 8150      		subi r24,lo8(-(-1))
 1729               	.L52:
 1730               	.LM182:
 1731 0810 8823      		tst r24
 1732 0812 01F4      		brne .L53
 1733               	.LM183:
 1734 0814 CB01      		movw r24,r22
 1735               	.LVL167:
 1736 0816 23E0      		ldi r18,3
 1737 0818 9695      	1:	lsr r25
 1738 081a 8795      		ror r24
 1739 081c 2A95      		dec r18
 1740 081e 01F4      		brne 1b
 1741               	.LVL168:
 1742 0820 8E0F      		add r24,r30
 1743 0822 9F1F      		adc r25,r31
 1744 0824 00C0      		rjmp .L54
 1745               	.L55:
 1746               	.LM184:
 1747               	/* #APP */
 1748               	 ;  340 "lcd/lcd.c" 1
 1749 0826 1093 0041 		sts 16640,r17 
 1750 082a 0093 0041 		 sts 16640,r16
 1751               	 ;  0 "" 2
 1752               	.LM185:
 1753               	 ;  341 "lcd/lcd.c" 1
 1754 082e 1093 0041 		sts 16640,r17 
 1755 0832 0093 0041 		 sts 16640,r16
 1756               	 ;  0 "" 2
 1757               	.LM186:
 1758               	 ;  342 "lcd/lcd.c" 1
 1759 0836 1093 0041 		sts 16640,r17 
 1760 083a 0093 0041 		 sts 16640,r16
 1761               	 ;  0 "" 2
 1762               	.LM187:
 1763               	 ;  343 "lcd/lcd.c" 1
 1764 083e 1093 0041 		sts 16640,r17 
 1765 0842 0093 0041 		 sts 16640,r16
 1766               	 ;  0 "" 2
 1767               	.LM188:
 1768               	 ;  344 "lcd/lcd.c" 1
 1769 0846 1093 0041 		sts 16640,r17 
 1770 084a 0093 0041 		 sts 16640,r16
 1771               	 ;  0 "" 2
 1772               	.LM189:
 1773               	 ;  345 "lcd/lcd.c" 1
 1774 084e 1093 0041 		sts 16640,r17 
 1775 0852 0093 0041 		 sts 16640,r16
 1776               	 ;  0 "" 2
 1777               	.LM190:
 1778               	 ;  346 "lcd/lcd.c" 1
 1779 0856 1093 0041 		sts 16640,r17 
 1780 085a 0093 0041 		 sts 16640,r16
 1781               	 ;  0 "" 2
 1782               	.LM191:
 1783               	 ;  347 "lcd/lcd.c" 1
 1784 085e 1093 0041 		sts 16640,r17 
 1785 0862 0093 0041 		 sts 16640,r16
 1786               	 ;  0 "" 2
 1787               	/* #NOAPP */
 1788 0866 0197      		sbiw r24,1
 1789               	.L54:
 1790               	.LM192:
 1791 0868 0097      		sbiw r24,0
 1792 086a 01F4      		brne .L55
 1793               	/* epilogue start */
 1794               	.LM193:
 1795 086c 1F91      		pop r17
 1796 086e 0F91      		pop r16
 1797               	.LVL169:
 1798 0870 0895      		ret
 1799               	.LFE14:
 1801               	.global	fill_rectangle_indexed
 1803               	fill_rectangle_indexed:
 1804               	.LFB15:
 1805               	.LM194:
 1806               	.LVL170:
 1807 0872 EF92      		push r14
 1808 0874 FF92      		push r15
 1809 0876 0F93      		push r16
 1810               	.LVL171:
 1811 0878 1F93      		push r17
 1812 087a DF93      		push r29
 1813 087c CF93      		push r28
 1814 087e CDB7      		in r28,__SP_L__
 1815 0880 DEB7      		in r29,__SP_H__
 1816 0882 2897      		sbiw r28,8
 1817 0884 0FB6      		in __tmp_reg__,__SREG__
 1818 0886 F894      		cli
 1819 0888 DEBF      		out __SP_H__,r29
 1820 088a 0FBE      		out __SREG__,__tmp_reg__
 1821 088c CDBF      		out __SP_L__,r28
 1822               	/* prologue: function */
 1823               	/* frame size = 8 */
 1824 088e 2983      		std Y+1,r18
 1825 0890 3A83      		std Y+2,r19
 1826 0892 4B83      		std Y+3,r20
 1827 0894 5C83      		std Y+4,r21
 1828 0896 6D83      		std Y+5,r22
 1829 0898 7E83      		std Y+6,r23
 1830 089a 8F83      		std Y+7,r24
 1831 089c 9887      		std Y+8,r25
 1832               	.LM195:
 1833 089e 2981      		ldd r18,Y+1
 1834 08a0 3A81      		ldd r19,Y+2
 1835 08a2 AB81      		ldd r26,Y+3
 1836 08a4 BC81      		ldd r27,Y+4
 1837 08a6 ED80      		ldd r14,Y+5
 1838 08a8 FE80      		ldd r15,Y+6
 1839 08aa 6F81      		ldd r22,Y+7
 1840 08ac 7885      		ldd r23,Y+8
 1841               	.LM196:
 1842 08ae 8AE2      		ldi r24,lo8(42)
 1843 08b0 90E0      		ldi r25,hi8(42)
 1844               	/* #APP */
 1845               	 ;  353 "lcd/lcd.c" 1
 1846 08b2 8093 0040 		sts 16384,r24
 1847               	 ;  0 "" 2
 1848               	.LM197:
 1849               	 ;  354 "lcd/lcd.c" 1
 1850 08b6 3093 0041 		sts 16640,r19 
 1851 08ba 2093 0041 		 sts 16640,r18
 1852               	 ;  0 "" 2
 1853               	.LM198:
 1854               	 ;  355 "lcd/lcd.c" 1
 1855 08be B093 0041 		sts 16640,r27 
 1856 08c2 A093 0041 		 sts 16640,r26
 1857               	 ;  0 "" 2
 1858               	.LM199:
 1859               	/* #NOAPP */
 1860 08c6 8BE2      		ldi r24,lo8(43)
 1861 08c8 90E0      		ldi r25,hi8(43)
 1862               	/* #APP */
 1863               	 ;  356 "lcd/lcd.c" 1
 1864 08ca 8093 0040 		sts 16384,r24
 1865               	 ;  0 "" 2
 1866               	.LM200:
 1867               	 ;  357 "lcd/lcd.c" 1
 1868 08ce F092 0041 		sts 16640,r15 
 1869 08d2 E092 0041 		 sts 16640,r14
 1870               	 ;  0 "" 2
 1871               	.LM201:
 1872               	 ;  358 "lcd/lcd.c" 1
 1873 08d6 7093 0041 		sts 16640,r23 
 1874 08da 6093 0041 		 sts 16640,r22
 1875               	 ;  0 "" 2
 1876               	.LM202:
 1877               	/* #NOAPP */
 1878 08de 8CE2      		ldi r24,lo8(44)
 1879 08e0 90E0      		ldi r25,hi8(44)
 1880               	/* #APP */
 1881               	 ;  359 "lcd/lcd.c" 1
 1882 08e2 8093 0040 		sts 16384,r24
 1883               	 ;  0 "" 2
 1884               	/* #NOAPP */
 1885 08e6 00C0      		rjmp .L58
 1886               	.LVL172:
 1887               	.L59:
 1888               	.LM203:
 1889 08e8 F801      		movw r30,r16
 1890 08ea 8191      		ld r24,Z+
 1891 08ec 9191      		ld r25,Z+
 1892 08ee 8F01      		movw r16,r30
 1893               	/* #APP */
 1894               	 ;  362 "lcd/lcd.c" 1
 1895 08f0 9093 0041 		sts 16640,r25 
 1896 08f4 8093 0041 		 sts 16640,r24
 1897               	 ;  0 "" 2
 1898               	.LM204:
 1899               	/* #NOAPP */
 1900 08f8 4F5F      		subi r20,lo8(-(1))
 1901 08fa 5F4F      		sbci r21,hi8(-(1))
 1902               	.L61:
 1903 08fc 6417      		cp r22,r20
 1904 08fe 7507      		cpc r23,r21
 1905 0900 00F4      		brsh .L59
 1906               	.LM205:
 1907 0902 2F5F      		subi r18,lo8(-(1))
 1908 0904 3F4F      		sbci r19,hi8(-(1))
 1909               	.L58:
 1910 0906 A217      		cp r26,r18
 1911 0908 B307      		cpc r27,r19
 1912 090a 00F0      		brlo .L62
 1913 090c A701      		movw r20,r14
 1914 090e 00C0      		rjmp .L61
 1915               	.L62:
 1916               	/* epilogue start */
 1917               	.LM206:
 1918 0910 2896      		adiw r28,8
 1919 0912 0FB6      		in __tmp_reg__,__SREG__
 1920 0914 F894      		cli
 1921 0916 DEBF      		out __SP_H__,r29
 1922 0918 0FBE      		out __SREG__,__tmp_reg__
 1923 091a CDBF      		out __SP_L__,r28
 1924 091c CF91      		pop r28
 1925 091e DF91      		pop r29
 1926 0920 1F91      		pop r17
 1927 0922 0F91      		pop r16
 1928               	.LVL173:
 1929 0924 FF90      		pop r15
 1930 0926 EF90      		pop r14
 1931 0928 0895      		ret
 1932               	.LFE15:
 1934               	.global	clear_screen
 1936               	clear_screen:
 1937               	.LFB16:
 1938               	.LM207:
 1939 092a 0F93      		push r16
 1940 092c 1F93      		push r17
 1941 092e DF93      		push r29
 1942 0930 CF93      		push r28
 1943 0932 CDB7      		in r28,__SP_L__
 1944 0934 DEB7      		in r29,__SP_H__
 1945 0936 2897      		sbiw r28,8
 1946 0938 0FB6      		in __tmp_reg__,__SREG__
 1947 093a F894      		cli
 1948 093c DEBF      		out __SP_H__,r29
 1949 093e 0FBE      		out __SREG__,__tmp_reg__
 1950 0940 CDBF      		out __SP_L__,r28
 1951               	/* prologue: function */
 1952               	/* frame size = 8 */
 1953               	.LM208:
 1954 0942 1092 0000 		sts (display+5)+1,__zero_reg__
 1955 0946 1092 0000 		sts display+5,__zero_reg__
 1956               	.LM209:
 1957 094a 1092 0000 		sts (display+7)+1,__zero_reg__
 1958 094e 1092 0000 		sts display+7,__zero_reg__
 1959               	.LM210:
 1960 0952 2091 0000 		lds r18,display
 1961 0956 3091 0000 		lds r19,(display)+1
 1962 095a 2150      		subi r18,lo8(-(-1))
 1963 095c 3040      		sbci r19,hi8(-(-1))
 1964 095e 8091 0000 		lds r24,display+2
 1965 0962 9091 0000 		lds r25,(display+2)+1
 1966 0966 0197      		sbiw r24,1
 1967 0968 1A82      		std Y+2,__zero_reg__
 1968 096a 1982      		std Y+1,__zero_reg__
 1969 096c 422F      		mov r20,r18
 1970 096e 3C83      		std Y+4,r19
 1971 0970 2B83      		std Y+3,r18
 1972 0972 1E82      		std Y+6,__zero_reg__
 1973 0974 1D82      		std Y+5,__zero_reg__
 1974 0976 9887      		std Y+8,r25
 1975 0978 8F83      		std Y+7,r24
 1976               	.LM211:
 1977 097a 0091 0000 		lds r16,display+11
 1978 097e 1091 0000 		lds r17,(display+11)+1
 1979 0982 2981      		ldd r18,Y+1
 1980 0984 3A81      		ldd r19,Y+2
 1981 0986 5C81      		ldd r21,Y+4
 1982 0988 6D81      		ldd r22,Y+5
 1983 098a 7E81      		ldd r23,Y+6
 1984 098c 9885      		ldd r25,Y+8
 1985 098e 0E94 0000 		call fill_rectangle
 1986               	/* epilogue start */
 1987               	.LM212:
 1988 0992 2896      		adiw r28,8
 1989 0994 0FB6      		in __tmp_reg__,__SREG__
 1990 0996 F894      		cli
 1991 0998 DEBF      		out __SP_H__,r29
 1992 099a 0FBE      		out __SREG__,__tmp_reg__
 1993 099c CDBF      		out __SP_L__,r28
 1994 099e CF91      		pop r28
 1995 09a0 DF91      		pop r29
 1996 09a2 1F91      		pop r17
 1997 09a4 0F91      		pop r16
 1998 09a6 0895      		ret
 1999               	.LFE16:
 2001               	.global	init_lcd
 2003               	init_lcd:
 2004               	.LFB6:
 2005               	.LM213:
 2006               	/* prologue: function */
 2007               	/* frame size = 0 */
 2008               	.LM214:
 2009 09a8 86E0      		ldi r24,lo8(6)
 2010 09aa 8093 7500 		sts 117,r24
 2011               	.LM215:
 2012 09ae 80E8      		ldi r24,lo8(-128)
 2013 09b0 8093 7400 		sts 116,r24
 2014               	.LM216:
 2015 09b4 3F9A      		sbi 39-32,7
 2016               	.LM217:
 2017 09b6 249A      		sbi 36-32,4
 2018               	.LBB51:
 2019               	.LBB52:
 2020               	.LBB53:
 2021               	.LBB54:
 2022               	.LM218:
 2023 09b8 80ED      		ldi r24,lo8(2000)
 2024 09ba 97E0      		ldi r25,hi8(2000)
 2025               	.LVL174:
 2026               	/* #APP */
 2027               	 ;  105 "c:/winavr-20100110/lib/gcc/../../avr/include/util/delay_basic.h" 1
 2028 09bc 0197      		1: sbiw r24,1
 2029 09be 01F4      		brne 1b
 2030               	 ;  0 "" 2
 2031               	/* #NOAPP */
 2032               	.LBE54:
 2033               	.LBE53:
 2034               	.LBE52:
 2035               	.LBE51:
 2036               	.LM219:
 2037 09c0 4798      		cbi 40-32,7
 2038               	.LBB55:
 2039               	.LBB56:
 2040               	.LBB57:
 2041               	.LBB58:
 2042               	.LM220:
 2043 09c2 80E4      		ldi r24,lo8(-25536)
 2044 09c4 9CE9      		ldi r25,hi8(-25536)
 2045               	.LVL175:
 2046               	/* #APP */
 2047               	 ;  105 "c:/winavr-20100110/lib/gcc/../../avr/include/util/delay_basic.h" 1
 2048 09c6 0197      		1: sbiw r24,1
 2049 09c8 01F4      		brne 1b
 2050               	 ;  0 "" 2
 2051               	/* #NOAPP */
 2052               	.LBE58:
 2053               	.LBE57:
 2054               	.LBE56:
 2055               	.LBE55:
 2056               	.LM221:
 2057 09ca 479A      		sbi 40-32,7
 2058 09cc 80EB      		ldi r24,lo8(1200)
 2059 09ce 94E0      		ldi r25,hi8(1200)
 2060               	.LVL176:
 2061               	.LBB59:
 2062               	.LBB60:
 2063               	.LBB61:
 2064               	.LBB62:
 2065               	.LM222:
 2066 09d0 28EC      		ldi r18,lo8(200)
 2067 09d2 30E0      		ldi r19,hi8(200)
 2068               	.L66:
 2069 09d4 F901      		movw r30,r18
 2070               	.LVL177:
 2071               	/* #APP */
 2072               	 ;  105 "c:/winavr-20100110/lib/gcc/../../avr/include/util/delay_basic.h" 1
 2073 09d6 3197      		1: sbiw r30,1
 2074 09d8 01F4      		brne 1b
 2075               	 ;  0 "" 2
 2076               	/* #NOAPP */
 2077               	.LBE62:
 2078               	.LBE61:
 2079               	.LM223:
 2080 09da 0197      		sbiw r24,1
 2081               	.LM224:
 2082 09dc 01F4      		brne .L66
 2083               	.LBE60:
 2084               	.LBE59:
 2085               	.LM225:
 2086 09de 88E2      		ldi r24,lo8(40)
 2087 09e0 90E0      		ldi r25,hi8(40)
 2088               	.LVL178:
 2089               	/* #APP */
 2090               	 ;  31 "lcd/lcd.c" 1
 2091 09e2 8093 0040 		sts 16384,r24
 2092               	 ;  0 "" 2
 2093               	.LM226:
 2094               	/* #NOAPP */
 2095 09e6 81E1      		ldi r24,lo8(17)
 2096 09e8 90E0      		ldi r25,hi8(17)
 2097               	/* #APP */
 2098               	 ;  32 "lcd/lcd.c" 1
 2099 09ea 8093 0040 		sts 16384,r24
 2100               	 ;  0 "" 2
 2101               	/* #NOAPP */
 2102 09ee 88E5      		ldi r24,lo8(600)
 2103 09f0 92E0      		ldi r25,hi8(600)
 2104               	.LVL179:
 2105               	.LBB63:
 2106               	.LBB64:
 2107               	.LBB65:
 2108               	.LBB66:
 2109               	.LM227:
 2110 09f2 28EC      		ldi r18,lo8(200)
 2111 09f4 30E0      		ldi r19,hi8(200)
 2112               	.L67:
 2113 09f6 F901      		movw r30,r18
 2114               	.LVL180:
 2115               	/* #APP */
 2116               	 ;  105 "c:/winavr-20100110/lib/gcc/../../avr/include/util/delay_basic.h" 1
 2117 09f8 3197      		1: sbiw r30,1
 2118 09fa 01F4      		brne 1b
 2119               	 ;  0 "" 2
 2120               	/* #NOAPP */
 2121               	.LBE66:
 2122               	.LBE65:
 2123               	.LM228:
 2124 09fc 0197      		sbiw r24,1
 2125               	.LM229:
 2126 09fe 01F4      		brne .L67
 2127               	.LBE64:
 2128               	.LBE63:
 2129               	.LM230:
 2130 0a00 41E0      		ldi r20,lo8(1)
 2131 0a02 50E0      		ldi r21,hi8(1)
 2132 0a04 8BEC      		ldi r24,lo8(203)
 2133 0a06 90E0      		ldi r25,hi8(203)
 2134               	.LVL181:
 2135               	/* #APP */
 2136               	 ;  34 "lcd/lcd.c" 1
 2137 0a08 8093 0040 		sts 16384,r24 
 2138 0a0c 4093 0041 		 sts 16640,r20
 2139               	 ;  0 "" 2
 2140               	.LM231:
 2141               	/* #NOAPP */
 2142 0a10 80EC      		ldi r24,lo8(192)
 2143 0a12 90E0      		ldi r25,hi8(192)
 2144               	/* #APP */
 2145               	 ;  35 "lcd/lcd.c" 1
 2146 0a14 8093 0040 		sts 16384,r24
 2147               	 ;  0 "" 2
 2148               	.LM232:
 2149               	/* #NOAPP */
 2150 0a18 88E0      		ldi r24,lo8(9736)
 2151 0a1a 96E2      		ldi r25,hi8(9736)
 2152               	/* #APP */
 2153               	 ;  36 "lcd/lcd.c" 1
 2154 0a1c 9093 0041 		sts 16640,r25 
 2155 0a20 8093 0041 		 sts 16640,r24
 2156               	 ;  0 "" 2
 2157               	.LM233:
 2158               	/* #NOAPP */
 2159 0a24 20E1      		ldi r18,lo8(16)
 2160 0a26 30E0      		ldi r19,hi8(16)
 2161 0a28 81EC      		ldi r24,lo8(193)
 2162 0a2a 90E0      		ldi r25,hi8(193)
 2163               	/* #APP */
 2164               	 ;  37 "lcd/lcd.c" 1
 2165 0a2c 8093 0040 		sts 16384,r24 
 2166 0a30 2093 0041 		 sts 16640,r18
 2167               	 ;  0 "" 2
 2168               	.LM234:
 2169               	/* #NOAPP */
 2170 0a34 85EC      		ldi r24,lo8(197)
 2171 0a36 90E0      		ldi r25,hi8(197)
 2172               	/* #APP */
 2173               	 ;  38 "lcd/lcd.c" 1
 2174 0a38 8093 0040 		sts 16384,r24
 2175               	 ;  0 "" 2
 2176               	.LM235:
 2177               	/* #NOAPP */
 2178 0a3c 8EE3      		ldi r24,lo8(13630)
 2179 0a3e 95E3      		ldi r25,hi8(13630)
 2180               	/* #APP */
 2181               	 ;  39 "lcd/lcd.c" 1
 2182 0a40 9093 0041 		sts 16640,r25 
 2183 0a44 8093 0041 		 sts 16640,r24
 2184               	 ;  0 "" 2
 2185               	.LM236:
 2186               	/* #NOAPP */
 2187 0a48 25EB      		ldi r18,lo8(181)
 2188 0a4a 30E0      		ldi r19,hi8(181)
 2189 0a4c 87EC      		ldi r24,lo8(199)
 2190 0a4e 90E0      		ldi r25,hi8(199)
 2191               	/* #APP */
 2192               	 ;  40 "lcd/lcd.c" 1
 2193 0a50 8093 0040 		sts 16384,r24 
 2194 0a54 2093 0041 		 sts 16640,r18
 2195               	 ;  0 "" 2
 2196               	.LM237:
 2197               	/* #NOAPP */
 2198 0a58 86EF      		ldi r24,lo8(246)
 2199 0a5a 90E0      		ldi r25,hi8(246)
 2200               	/* #APP */
 2201               	 ;  41 "lcd/lcd.c" 1
 2202 0a5c 8093 0040 		sts 16384,r24 
 2203 0a60 4093 0041 		 sts 16640,r20
 2204               	 ;  0 "" 2
 2205               	.LM238:
 2206               	/* #NOAPP */
 2207 0a64 80E0      		ldi r24,lo8(0)
 2208 0a66 90E0      		ldi r25,hi8(0)
 2209               	/* #APP */
 2210               	 ;  42 "lcd/lcd.c" 1
 2211 0a68 9093 0041 		sts 16640,r25 
 2212 0a6c 8093 0041 		 sts 16640,r24
 2213               	 ;  0 "" 2
 2214               	.LM239:
 2215               	/* #NOAPP */
 2216 0a70 25E5      		ldi r18,lo8(85)
 2217 0a72 30E0      		ldi r19,hi8(85)
 2218 0a74 8AE3      		ldi r24,lo8(58)
 2219 0a76 90E0      		ldi r25,hi8(58)
 2220               	/* #APP */
 2221               	 ;  43 "lcd/lcd.c" 1
 2222 0a78 8093 0040 		sts 16384,r24 
 2223 0a7c 2093 0041 		 sts 16640,r18
 2224               	 ;  0 "" 2
 2225               	.LM240:
 2226               	/* #NOAPP */
 2227 0a80 81E0      		ldi r24,lo8(1)
 2228 0a82 0E94 0000 		call set_orientation
 2229               	.LVL182:
 2230               	.LM241:
 2231 0a86 0E94 0000 		call clear_screen
 2232               	.LM242:
 2233 0a8a 1092 0000 		sts (display+5)+1,__zero_reg__
 2234 0a8e 1092 0000 		sts display+5,__zero_reg__
 2235               	.LM243:
 2236 0a92 1092 0000 		sts (display+7)+1,__zero_reg__
 2237 0a96 1092 0000 		sts display+7,__zero_reg__
 2238               	.LM244:
 2239 0a9a 1092 0000 		sts (display+11)+1,__zero_reg__
 2240 0a9e 1092 0000 		sts display+11,__zero_reg__
 2241               	.LM245:
 2242 0aa2 8FEF      		ldi r24,lo8(-1)
 2243 0aa4 9FEF      		ldi r25,hi8(-1)
 2244 0aa6 9093 0000 		sts (display+9)+1,r25
 2245 0aaa 8093 0000 		sts display+9,r24
 2246               	.LM246:
 2247 0aae 89E2      		ldi r24,lo8(41)
 2248 0ab0 90E0      		ldi r25,hi8(41)
 2249               	/* #APP */
 2250               	 ;  50 "lcd/lcd.c" 1
 2251 0ab2 8093 0040 		sts 16384,r24
 2252               	 ;  0 "" 2
 2253               	/* #NOAPP */
 2254 0ab6 84EF      		ldi r24,lo8(500)
 2255 0ab8 91E0      		ldi r25,hi8(500)
 2256               	.LVL183:
 2257               	.LBB67:
 2258               	.LBB68:
 2259               	.LBB69:
 2260               	.LBB70:
 2261               	.LM247:
 2262 0aba 28EC      		ldi r18,lo8(200)
 2263 0abc 30E0      		ldi r19,hi8(200)
 2264               	.L68:
 2265 0abe F901      		movw r30,r18
 2266               	.LVL184:
 2267               	/* #APP */
 2268               	 ;  105 "c:/winavr-20100110/lib/gcc/../../avr/include/util/delay_basic.h" 1
 2269 0ac0 3197      		1: sbiw r30,1
 2270 0ac2 01F4      		brne 1b
 2271               	 ;  0 "" 2
 2272               	/* #NOAPP */
 2273               	.LBE70:
 2274               	.LBE69:
 2275               	.LM248:
 2276 0ac4 0197      		sbiw r24,1
 2277               	.LM249:
 2278 0ac6 01F4      		brne .L68
 2279               	.LBE68:
 2280               	.LBE67:
 2281               	.LM250:
 2282 0ac8 80E0      		ldi r24,lo8(0)
 2283 0aca 90E0      		ldi r25,hi8(0)
 2284               	.LVL185:
 2285 0acc 25E3      		ldi r18,lo8(53)
 2286 0ace 30E0      		ldi r19,hi8(53)
 2287               	/* #APP */
 2288               	 ;  52 "lcd/lcd.c" 1
 2289 0ad0 2093 0040 		sts 16384,r18 
 2290 0ad4 8093 0041 		 sts 16640,r24
 2291               	 ;  0 "" 2
 2292               	.LM251:
 2293               	/* #NOAPP */
 2294 0ad8 8091 6A00 		lds r24,106
 2295 0adc 8062      		ori r24,lo8(32)
 2296 0ade 8093 6A00 		sts 106,r24
 2297               	.LM252:
 2298 0ae2 2C9A      		sbi 37-32,4
 2299               	/* epilogue start */
 2300               	.LM253:
 2301 0ae4 0895      		ret
 2302               	.LFE6:
 2304               	.global	display_char_col
 2306               	display_char_col:
 2307               	.LFB18:
 2308               	.LM254:
 2309               	.LVL186:
 2310 0ae6 4F92      		push r4
 2311 0ae8 5F92      		push r5
 2312 0aea 6F92      		push r6
 2313 0aec 7F92      		push r7
 2314 0aee 8F92      		push r8
 2315 0af0 9F92      		push r9
 2316 0af2 AF92      		push r10
 2317 0af4 BF92      		push r11
 2318 0af6 CF92      		push r12
 2319 0af8 DF92      		push r13
 2320 0afa EF92      		push r14
 2321 0afc FF92      		push r15
 2322 0afe 0F93      		push r16
 2323 0b00 1F93      		push r17
 2324 0b02 CF93      		push r28
 2325 0b04 DF93      		push r29
 2326               	/* prologue: function */
 2327               	/* frame size = 0 */
 2328 0b06 982F      		mov r25,r24
 2329 0b08 3B01      		movw r6,r22
 2330               	.LVL187:
 2331 0b0a 7A01      		movw r14,r20
 2332               	.LM255:
 2333 0b0c 2091 0000 		lds r18,display+5
 2334 0b10 3091 0000 		lds r19,(display+5)+1
 2335               	.LVL188:
 2336 0b14 14E0      		ldi r17,lo8(4)
 2337 0b16 C12E      		mov r12,r17
 2338 0b18 D12C      		mov r13,__zero_reg__
 2339               	.LVL189:
 2340 0b1a C20E      		add r12,r18
 2341 0b1c D31E      		adc r13,r19
 2342 0b1e 6091 0000 		lds r22,display+7
 2343 0b22 7091 0000 		lds r23,(display+7)+1
 2344               	.LVL190:
 2345               	.LM256:
 2346 0b26 8A30      		cpi r24,lo8(10)
 2347 0b28 01F4      		brne .L74
 2348               	.LVL191:
 2349               	.LM257:
 2350 0b2a 1092 0000 		sts (display+5)+1,__zero_reg__
 2351 0b2e 1092 0000 		sts display+5,__zero_reg__
 2352 0b32 9B01      		movw r18,r22
 2353               	.LVL192:
 2354 0b34 285F      		subi r18,lo8(-(8))
 2355 0b36 3F4F      		sbci r19,hi8(-(8))
 2356 0b38 3093 0000 		sts (display+7)+1,r19
 2357 0b3c 2093 0000 		sts display+7,r18
 2358               	.LM258:
 2359 0b40 8091 0000 		lds r24,display+2
 2360 0b44 9091 0000 		lds r25,(display+2)+1
 2361               	.LVL193:
 2362 0b48 2817      		cp r18,r24
 2363 0b4a 3907      		cpc r19,r25
 2364 0b4c 00F4      		brsh .+2
 2365 0b4e 00C0      		rjmp .L84
 2366 0b50 0E94 0000 		call clear_screen
 2367               	.LVL194:
 2368 0b54 00C0      		rjmp .L84
 2369               	.LVL195:
 2370               	.L74:
 2371               	.LM259:
 2372 0b56 8052      		subi r24,lo8(-(-32))
 2373               	.LVL196:
 2374 0b58 8F35      		cpi r24,lo8(95)
 2375 0b5a 00F0      		brlo .+2
 2376 0b5c 00C0      		rjmp .L84
 2377               	.LM260:
 2378 0b5e EB01      		movw r28,r22
 2379               	.LVL197:
 2380 0b60 2796      		adiw r28,7
 2381               	.LM261:
 2382 0b62 85E0      		ldi r24,lo8(5)
 2383 0b64 989F      		mul r25,r24
 2384 0b66 A001      		movw r20,r0
 2385 0b68 1124      		clr r1
 2386               	.LVL198:
 2387 0b6a 4050      		subi r20,lo8(-(font5x7-160))
 2388 0b6c 5040      		sbci r21,hi8(-(font5x7-160))
 2389               	.LM262:
 2390 0b6e 8BE2      		ldi r24,lo8(43)
 2391 0b70 90E0      		ldi r25,hi8(43)
 2392               	/* #APP */
 2393               	 ;  396 "lcd/lcd.c" 1
 2394 0b72 8093 0040 		sts 16384,r24
 2395               	 ;  0 "" 2
 2396               	.LM263:
 2397               	 ;  397 "lcd/lcd.c" 1
 2398 0b76 7093 0041 		sts 16640,r23 
 2399 0b7a 6093 0041 		 sts 16640,r22
 2400               	 ;  0 "" 2
 2401               	.LM264:
 2402               	 ;  398 "lcd/lcd.c" 1
 2403 0b7e D093 0041 		sts 16640,r29 
 2404 0b82 C093 0041 		 sts 16640,r28
 2405               	 ;  0 "" 2
 2406               	/* #NOAPP */
 2407 0b86 2901      		movw r4,r18
 2408               	.LVL199:
 2409               	.LM265:
 2410 0b88 BAE2      		ldi r27,lo8(42)
 2411 0b8a 8B2E      		mov r8,r27
 2412 0b8c 912C      		mov r9,__zero_reg__
 2413               	.LM266:
 2414 0b8e ACE2      		ldi r26,lo8(44)
 2415 0b90 AA2E      		mov r10,r26
 2416 0b92 B12C      		mov r11,__zero_reg__
 2417 0b94 00C0      		rjmp .L76
 2418               	.LVL200:
 2419               	.L81:
 2420               	.LM267:
 2421               	/* #APP */
 2422               	 ;  400 "lcd/lcd.c" 1
 2423 0b96 8092 0040 		sts 16384,r8
 2424               	 ;  0 "" 2
 2425               	.LM268:
 2426               	 ;  401 "lcd/lcd.c" 1
 2427 0b9a 5092 0041 		sts 16640,r5 
 2428 0b9e 4092 0041 		 sts 16640,r4
 2429               	 ;  0 "" 2
 2430               	.LM269:
 2431               	 ;  402 "lcd/lcd.c" 1
 2432 0ba2 5092 0041 		sts 16640,r5 
 2433 0ba6 4092 0041 		 sts 16640,r4
 2434               	 ;  0 "" 2
 2435               	.LM270:
 2436               	 ;  403 "lcd/lcd.c" 1
 2437 0baa A092 0040 		sts 16384,r10
 2438               	 ;  0 "" 2
 2439               	/* #NOAPP */
 2440               	.LBB71:
 2441               	.LM271:
 2442 0bae FA01      		movw r30,r20
 2443               	/* #APP */
 2444               	 ;  404 "lcd/lcd.c" 1
 2445 0bb0 0491      		lpm r16, Z
 2446               		
 2447               	 ;  0 "" 2
 2448               	/* #NOAPP */
 2449 0bb2 DB01      		movw r26,r22
 2450 0bb4 11E0      		ldi r17,lo8(1)
 2451 0bb6 00C0      		rjmp .L77
 2452               	.L80:
 2453               	.LBE71:
 2454               	.LM272:
 2455 0bb8 812F      		mov r24,r17
 2456 0bba 8023      		and r24,r16
 2457 0bbc 01F4      		brne .L78
 2458 0bbe 9701      		movw r18,r14
 2459               	.LVL201:
 2460 0bc0 00C0      		rjmp .L79
 2461               	.LVL202:
 2462               	.L78:
 2463 0bc2 9301      		movw r18,r6
 2464               	.LVL203:
 2465               	.L79:
 2466               	/* #APP */
 2467               	 ;  406 "lcd/lcd.c" 1
 2468 0bc4 3093 0041 		sts 16640,r19 
 2469 0bc8 2093 0041 		 sts 16640,r18
 2470               	 ;  0 "" 2
 2471               	.LM273:
 2472               	/* #NOAPP */
 2473 0bcc 1196      		adiw r26,1
 2474 0bce 110F      		lsl r17
 2475               	.LVL204:
 2476               	.L77:
 2477 0bd0 CA17      		cp r28,r26
 2478 0bd2 DB07      		cpc r29,r27
 2479 0bd4 00F4      		brsh .L80
 2480               	.LBB72:
 2481               	.LM274:
 2482 0bd6 4F5F      		subi r20,lo8(-(1))
 2483 0bd8 5F4F      		sbci r21,hi8(-(1))
 2484               	.LBE72:
 2485               	.LM275:
 2486 0bda 0894      		sec
 2487 0bdc 411C      		adc r4,__zero_reg__
 2488 0bde 511C      		adc r5,__zero_reg__
 2489               	.L76:
 2490 0be0 C414      		cp r12,r4
 2491 0be2 D504      		cpc r13,r5
 2492 0be4 00F4      		brsh .L81
 2493               	.LM276:
 2494 0be6 8AE2      		ldi r24,lo8(42)
 2495 0be8 90E0      		ldi r25,hi8(42)
 2496               	/* #APP */
 2497               	 ;  408 "lcd/lcd.c" 1
 2498 0bea 8093 0040 		sts 16384,r24
 2499               	 ;  0 "" 2
 2500               	.LM277:
 2501               	 ;  409 "lcd/lcd.c" 1
 2502 0bee 5092 0041 		sts 16640,r5 
 2503 0bf2 4092 0041 		 sts 16640,r4
 2504               	 ;  0 "" 2
 2505               	.LM278:
 2506               	 ;  410 "lcd/lcd.c" 1
 2507 0bf6 5092 0041 		sts 16640,r5 
 2508 0bfa 4092 0041 		 sts 16640,r4
 2509               	 ;  0 "" 2
 2510               	.LM279:
 2511               	/* #NOAPP */
 2512 0bfe 8CE2      		ldi r24,lo8(44)
 2513 0c00 90E0      		ldi r25,hi8(44)
 2514               	/* #APP */
 2515               	 ;  411 "lcd/lcd.c" 1
 2516 0c02 8093 0040 		sts 16384,r24
 2517               	 ;  0 "" 2
 2518               	/* #NOAPP */
 2519 0c06 9B01      		movw r18,r22
 2520               	.LVL205:
 2521 0c08 00C0      		rjmp .L82
 2522               	.L83:
 2523               	.LM280:
 2524               	/* #APP */
 2525               	 ;  413 "lcd/lcd.c" 1
 2526 0c0a F092 0041 		sts 16640,r15 
 2527 0c0e E092 0041 		 sts 16640,r14
 2528               	 ;  0 "" 2
 2529               	.LM281:
 2530               	/* #NOAPP */
 2531 0c12 2F5F      		subi r18,lo8(-(1))
 2532 0c14 3F4F      		sbci r19,hi8(-(1))
 2533               	.L82:
 2534 0c16 C217      		cp r28,r18
 2535 0c18 D307      		cpc r29,r19
 2536 0c1a 00F4      		brsh .L83
 2537               	.LM282:
 2538 0c1c 8091 0000 		lds r24,display+5
 2539 0c20 9091 0000 		lds r25,(display+5)+1
 2540 0c24 0696      		adiw r24,6
 2541 0c26 9093 0000 		sts (display+5)+1,r25
 2542 0c2a 8093 0000 		sts display+5,r24
 2543               	.LM283:
 2544 0c2e 2091 0000 		lds r18,display
 2545 0c32 3091 0000 		lds r19,(display)+1
 2546               	.LVL206:
 2547 0c36 8217      		cp r24,r18
 2548 0c38 9307      		cpc r25,r19
 2549 0c3a 00F0      		brlo .L84
 2550 0c3c 1092 0000 		sts (display+5)+1,__zero_reg__
 2551 0c40 1092 0000 		sts display+5,__zero_reg__
 2552 0c44 8091 0000 		lds r24,display+7
 2553 0c48 9091 0000 		lds r25,(display+7)+1
 2554 0c4c 0896      		adiw r24,8
 2555 0c4e 9093 0000 		sts (display+7)+1,r25
 2556 0c52 8093 0000 		sts display+7,r24
 2557               	.LVL207:
 2558               	.L84:
 2559               	/* epilogue start */
 2560               	.LM284:
 2561 0c56 DF91      		pop r29
 2562 0c58 CF91      		pop r28
 2563               	.LVL208:
 2564 0c5a 1F91      		pop r17
 2565               	.LVL209:
 2566 0c5c 0F91      		pop r16
 2567               	.LVL210:
 2568 0c5e FF90      		pop r15
 2569 0c60 EF90      		pop r14
 2570               	.LVL211:
 2571 0c62 DF90      		pop r13
 2572 0c64 CF90      		pop r12
 2573               	.LVL212:
 2574 0c66 BF90      		pop r11
 2575 0c68 AF90      		pop r10
 2576 0c6a 9F90      		pop r9
 2577 0c6c 8F90      		pop r8
 2578 0c6e 7F90      		pop r7
 2579 0c70 6F90      		pop r6
 2580 0c72 5F90      		pop r5
 2581 0c74 4F90      		pop r4
 2582               	.LVL213:
 2583 0c76 0895      		ret
 2584               	.LFE18:
 2586               	.global	display_char_xy_col
 2588               	display_char_xy_col:
 2589               	.LFB17:
 2590               	.LM285:
 2591               	.LVL214:
 2592 0c78 0F93      		push r16
 2593               	.LVL215:
 2594 0c7a 1F93      		push r17
 2595               	/* prologue: function */
 2596               	/* frame size = 0 */
 2597               	.LM286:
 2598 0c7c 7093 0000 		sts (display+5)+1,r23
 2599 0c80 6093 0000 		sts display+5,r22
 2600               	.LM287:
 2601 0c84 5093 0000 		sts (display+7)+1,r21
 2602 0c88 4093 0000 		sts display+7,r20
 2603               	.LM288:
 2604 0c8c B901      		movw r22,r18
 2605               	.LVL216:
 2606 0c8e A801      		movw r20,r16
 2607               	.LVL217:
 2608 0c90 0E94 0000 		call display_char_col
 2609               	.LVL218:
 2610               	/* epilogue start */
 2611               	.LM289:
 2612 0c94 1F91      		pop r17
 2613 0c96 0F91      		pop r16
 2614               	.LVL219:
 2615 0c98 0895      		ret
 2616               	.LFE17:
 2618               	.global	display_char
 2620               	display_char:
 2621               	.LFB19:
 2622               	.LM290:
 2623               	.LVL220:
 2624               	/* prologue: function */
 2625               	/* frame size = 0 */
 2626               	.LM291:
 2627 0c9a 6091 0000 		lds r22,display+9
 2628 0c9e 7091 0000 		lds r23,(display+9)+1
 2629 0ca2 4091 0000 		lds r20,display+11
 2630 0ca6 5091 0000 		lds r21,(display+11)+1
 2631 0caa 0E94 0000 		call display_char_col
 2632               	.LVL221:
 2633               	/* epilogue start */
 2634               	.LM292:
 2635 0cae 0895      		ret
 2636               	.LFE19:
 2638               	.global	display_string_col
 2640               	display_string_col:
 2641               	.LFB20:
 2642               	.LM293:
 2643               	.LVL222:
 2644 0cb0 EF92      		push r14
 2645 0cb2 FF92      		push r15
 2646 0cb4 1F93      		push r17
 2647 0cb6 CF93      		push r28
 2648 0cb8 DF93      		push r29
 2649               	/* prologue: function */
 2650               	/* frame size = 0 */
 2651 0cba 7C01      		movw r14,r24
 2652 0cbc EB01      		movw r28,r22
 2653               	.LM294:
 2654 0cbe 10E0      		ldi r17,lo8(0)
 2655               	.LVL223:
 2656 0cc0 00C0      		rjmp .L90
 2657               	.LVL224:
 2658               	.L91:
 2659               	.LM295:
 2660 0cc2 4091 0000 		lds r20,display+11
 2661 0cc6 5091 0000 		lds r21,(display+11)+1
 2662 0cca BE01      		movw r22,r28
 2663 0ccc 0E94 0000 		call display_char_col
 2664               	.LM296:
 2665 0cd0 1F5F      		subi r17,lo8(-(1))
 2666               	.LVL225:
 2667               	.L90:
 2668 0cd2 F701      		movw r30,r14
 2669 0cd4 E10F      		add r30,r17
 2670 0cd6 F11D      		adc r31,__zero_reg__
 2671 0cd8 8081      		ld r24,Z
 2672 0cda 8823      		tst r24
 2673 0cdc 01F4      		brne .L91
 2674               	/* epilogue start */
 2675               	.LM297:
 2676 0cde DF91      		pop r29
 2677 0ce0 CF91      		pop r28
 2678               	.LVL226:
 2679 0ce2 1F91      		pop r17
 2680               	.LVL227:
 2681 0ce4 FF90      		pop r15
 2682 0ce6 EF90      		pop r14
 2683               	.LVL228:
 2684 0ce8 0895      		ret
 2685               	.LFE20:
 2687               	.global	display_string
 2689               	display_string:
 2690               	.LFB21:
 2691               	.LM298:
 2692               	.LVL229:
 2693               	/* prologue: function */
 2694               	/* frame size = 0 */
 2695               	.LM299:
 2696 0cea 6091 0000 		lds r22,display+9
 2697 0cee 7091 0000 		lds r23,(display+9)+1
 2698 0cf2 0E94 0000 		call display_string_col
 2699               	.LVL230:
 2700               	/* epilogue start */
 2701               	.LM300:
 2702 0cf6 0895      		ret
 2703               	.LFE21:
 2705               	.global	display_string_xy_col
 2707               	display_string_xy_col:
 2708               	.LFB22:
 2709               	.LM301:
 2710               	.LVL231:
 2711 0cf8 EF92      		push r14
 2712 0cfa FF92      		push r15
 2713 0cfc 1F93      		push r17
 2714 0cfe CF93      		push r28
 2715 0d00 DF93      		push r29
 2716               	/* prologue: function */
 2717               	/* frame size = 0 */
 2718 0d02 7C01      		movw r14,r24
 2719 0d04 E901      		movw r28,r18
 2720               	.LM302:
 2721 0d06 7093 0000 		sts (display+5)+1,r23
 2722 0d0a 6093 0000 		sts display+5,r22
 2723               	.LM303:
 2724 0d0e 5093 0000 		sts (display+7)+1,r21
 2725 0d12 4093 0000 		sts display+7,r20
 2726 0d16 10E0      		ldi r17,lo8(0)
 2727               	.LVL232:
 2728 0d18 00C0      		rjmp .L96
 2729               	.LVL233:
 2730               	.L97:
 2731               	.LM304:
 2732 0d1a 4091 0000 		lds r20,display+11
 2733 0d1e 5091 0000 		lds r21,(display+11)+1
 2734               	.LVL234:
 2735 0d22 BE01      		movw r22,r28
 2736               	.LVL235:
 2737 0d24 0E94 0000 		call display_char_col
 2738               	.LM305:
 2739 0d28 1F5F      		subi r17,lo8(-(1))
 2740               	.LVL236:
 2741               	.L96:
 2742 0d2a F701      		movw r30,r14
 2743 0d2c E10F      		add r30,r17
 2744 0d2e F11D      		adc r31,__zero_reg__
 2745 0d30 8081      		ld r24,Z
 2746 0d32 8823      		tst r24
 2747 0d34 01F4      		brne .L97
 2748               	/* epilogue start */
 2749               	.LM306:
 2750 0d36 DF91      		pop r29
 2751 0d38 CF91      		pop r28
 2752               	.LVL237:
 2753 0d3a 1F91      		pop r17
 2754               	.LVL238:
 2755 0d3c FF90      		pop r15
 2756 0d3e EF90      		pop r14
 2757               	.LVL239:
 2758 0d40 0895      		ret
 2759               	.LFE22:
 2761               	.global	display_string_xy
 2763               	display_string_xy:
 2764               	.LFB23:
 2765               	.LM307:
 2766               	.LVL240:
 2767               	/* prologue: function */
 2768               	/* frame size = 0 */
 2769               	.LM308:
 2770 0d42 2091 0000 		lds r18,display+9
 2771 0d46 3091 0000 		lds r19,(display+9)+1
 2772 0d4a 0E94 0000 		call display_string_xy_col
 2773               	.LVL241:
 2774               	/* epilogue start */
 2775               	.LM309:
 2776 0d4e 0895      		ret
 2777               	.LFE23:
 2779               	.global	display_register
 2781               	display_register:
 2782               	.LFB24:
 2783               	.LM310:
 2784               	.LVL242:
 2785 0d50 EF92      		push r14
 2786 0d52 FF92      		push r15
 2787 0d54 0F93      		push r16
 2788 0d56 1F93      		push r17
 2789 0d58 CF93      		push r28
 2790 0d5a DF93      		push r29
 2791               	/* prologue: function */
 2792               	/* frame size = 0 */
 2793               	.LM311:
 2794 0d5c C0E0      		ldi r28,lo8(0)
 2795 0d5e D0E0      		ldi r29,hi8(0)
 2796               	.LM312:
 2797 0d60 00E8      		ldi r16,lo8(128)
 2798 0d62 E02E      		mov r14,r16
 2799 0d64 F12C      		mov r15,__zero_reg__
 2800 0d66 082F      		mov r16,r24
 2801 0d68 10E0      		ldi r17,lo8(0)
 2802               	.LVL243:
 2803               	.L104:
 2804 0d6a C701      		movw r24,r14
 2805 0d6c 0C2E      		mov r0,r28
 2806 0d6e 00C0      		rjmp 2f
 2807 0d70 9595      	1:	asr r25
 2808 0d72 8795      		ror r24
 2809 0d74 0A94      	2:	dec r0
 2810 0d76 02F4      		brpl 1b
 2811 0d78 8023      		and r24,r16
 2812 0d7a 9123      		and r25,r17
 2813 0d7c 892B      		or r24,r25
 2814 0d7e 01F0      		breq .L102
 2815               	.LM313:
 2816 0d80 81E3      		ldi r24,lo8(49)
 2817 0d82 00C0      		rjmp .L107
 2818               	.L102:
 2819               	.LM314:
 2820 0d84 8EE2      		ldi r24,lo8(46)
 2821               	.L107:
 2822 0d86 0E94 0000 		call display_char
 2823 0d8a 2196      		adiw r28,1
 2824               	.LM315:
 2825 0d8c C830      		cpi r28,8
 2826 0d8e D105      		cpc r29,__zero_reg__
 2827 0d90 01F4      		brne .L104
 2828               	/* epilogue start */
 2829               	.LM316:
 2830 0d92 DF91      		pop r29
 2831 0d94 CF91      		pop r28
 2832 0d96 1F91      		pop r17
 2833               	.LVL244:
 2834 0d98 0F91      		pop r16
 2835               	.LVL245:
 2836 0d9a FF90      		pop r15
 2837 0d9c EF90      		pop r14
 2838 0d9e 0895      		ret
 2839               	.LFE24:
 2841               		.data
 2842               	.LC0:
 2843 0000 3031 3233 		.string	"0123456789"
 2843      3435 3637 
 2843      3839 00
 2844               		.text
 2845               	.global	itoa
 2847               	itoa:
 2848               	.LFB26:
 2849               	.LM317:
 2850               	.LVL246:
 2851 0da0 1F93      		push r17
 2852 0da2 DF93      		push r29
 2853 0da4 CF93      		push r28
 2854 0da6 CDB7      		in r28,__SP_L__
 2855 0da8 DEB7      		in r29,__SP_H__
 2856 0daa 2B97      		sbiw r28,11
 2857 0dac 0FB6      		in __tmp_reg__,__SREG__
 2858 0dae F894      		cli
 2859 0db0 DEBF      		out __SP_H__,r29
 2860 0db2 0FBE      		out __SREG__,__tmp_reg__
 2861 0db4 CDBF      		out __SP_L__,r28
 2862               	/* prologue: function */
 2863               	/* frame size = 11 */
 2864 0db6 482F      		mov r20,r24
 2865 0db8 562F      		mov r21,r22
 2866 0dba 172F      		mov r17,r23
 2867               	.LVL247:
 2868               	.LM318:
 2869 0dbc DE01      		movw r26,r28
 2870 0dbe 1196      		adiw r26,1
 2871 0dc0 E0E0      		ldi r30,lo8(.LC0)
 2872 0dc2 F0E0      		ldi r31,hi8(.LC0)
 2873 0dc4 8BE0      		ldi r24,lo8(11)
 2874               	.LVL248:
 2875               	.L109:
 2876 0dc6 0190      		ld r0,Z+
 2877 0dc8 0D92      		st X+,r0
 2878 0dca 8150      		subi r24,lo8(-(-1))
 2879 0dcc 01F4      		brne .L109
 2880 0dce 852F      		mov r24,r21
 2881               	.LVL249:
 2882 0dd0 912F      		mov r25,r17
 2883               	.LVL250:
 2884 0dd2 9C01      		movw r18,r24
 2885               	.LVL251:
 2886 0dd4 D901      		movw r26,r18
 2887               	.LVL252:
 2888 0dd6 842F      		mov r24,r20
 2889               	.LVL253:
 2890               	.L110:
 2891               	.LM319:
 2892 0dd8 1196      		adiw r26,1
 2893               	.LM320:
 2894 0dda 6AE0      		ldi r22,lo8(10)
 2895 0ddc 0E94 0000 		call __udivmodqi4
 2896               	.LVL254:
 2897               	.LM321:
 2898 0de0 8823      		tst r24
 2899               	.LVL255:
 2900 0de2 01F4      		brne .L110
 2901               	.LM322:
 2902 0de4 1C92      		st X,__zero_reg__
 2903               	.LM323:
 2904 0de6 9E01      		movw r18,r28
 2905 0de8 2F5F      		subi r18,lo8(-(1))
 2906 0dea 3F4F      		sbci r19,hi8(-(1))
 2907               	.L111:
 2908 0dec 842F      		mov r24,r20
 2909               	.LVL256:
 2910 0dee 6AE0      		ldi r22,lo8(10)
 2911 0df0 0E94 0000 		call __udivmodqi4
 2912 0df4 F901      		movw r30,r18
 2913 0df6 E90F      		add r30,r25
 2914 0df8 F11D      		adc r31,__zero_reg__
 2915 0dfa 8081      		ld r24,Z
 2916 0dfc 8E93      		st -X,r24
 2917               	.LM324:
 2918 0dfe 842F      		mov r24,r20
 2919 0e00 0E94 0000 		call __udivmodqi4
 2920 0e04 482F      		mov r20,r24
 2921               	.LM325:
 2922 0e06 8823      		tst r24
 2923 0e08 01F4      		brne .L111
 2924               	.LVL257:
 2925               	.LM326:
 2926 0e0a 852F      		mov r24,r21
 2927               	.LVL258:
 2928 0e0c 912F      		mov r25,r17
 2929               	/* epilogue start */
 2930 0e0e 2B96      		adiw r28,11
 2931 0e10 0FB6      		in __tmp_reg__,__SREG__
 2932 0e12 F894      		cli
 2933 0e14 DEBF      		out __SP_H__,r29
 2934 0e16 0FBE      		out __SREG__,__tmp_reg__
 2935 0e18 CDBF      		out __SP_L__,r28
 2936 0e1a CF91      		pop r28
 2937 0e1c DF91      		pop r29
 2938 0e1e 1F91      		pop r17
 2939               	.LVL259:
 2940 0e20 0895      		ret
 2941               	.LFE26:
 2943               	.global	longtoa
 2945               	longtoa:
 2946               	.LFB27:
 2947               	.LM327:
 2948               	.LVL260:
 2949 0e22 8F92      		push r8
 2950 0e24 9F92      		push r9
 2951 0e26 AF92      		push r10
 2952 0e28 BF92      		push r11
 2953 0e2a CF92      		push r12
 2954 0e2c DF92      		push r13
 2955 0e2e EF92      		push r14
 2956 0e30 FF92      		push r15
 2957 0e32 0F93      		push r16
 2958 0e34 1F93      		push r17
 2959 0e36 DF93      		push r29
 2960 0e38 CF93      		push r28
 2961 0e3a CDB7      		in r28,__SP_L__
 2962 0e3c DEB7      		in r29,__SP_H__
 2963 0e3e 2B97      		sbiw r28,11
 2964 0e40 0FB6      		in __tmp_reg__,__SREG__
 2965 0e42 F894      		cli
 2966 0e44 DEBF      		out __SP_H__,r29
 2967 0e46 0FBE      		out __SREG__,__tmp_reg__
 2968 0e48 CDBF      		out __SP_L__,r28
 2969               	/* prologue: function */
 2970               	/* frame size = 11 */
 2971 0e4a 7B01      		movw r14,r22
 2972 0e4c 8C01      		movw r16,r24
 2973 0e4e 942E      		mov r9,r20
 2974 0e50 852E      		mov r8,r21
 2975               	.LVL261:
 2976               	.LM328:
 2977 0e52 DE01      		movw r26,r28
 2978 0e54 1196      		adiw r26,1
 2979 0e56 E0E0      		ldi r30,lo8(.LC0)
 2980 0e58 F0E0      		ldi r31,hi8(.LC0)
 2981 0e5a 8BE0      		ldi r24,lo8(11)
 2982               	.LVL262:
 2983               	.L117:
 2984 0e5c 0190      		ld r0,Z+
 2985 0e5e 0D92      		st X+,r0
 2986 0e60 8150      		subi r24,lo8(-(-1))
 2987 0e62 01F4      		brne .L117
 2988 0e64 892D      		mov r24,r9
 2989               	.LVL263:
 2990 0e66 982D      		mov r25,r8
 2991               	.LVL264:
 2992 0e68 9C01      		movw r18,r24
 2993               	.LVL265:
 2994 0e6a 6901      		movw r12,r18
 2995               	.LVL266:
 2996 0e6c C801      		movw r24,r16
 2997 0e6e B701      		movw r22,r14
 2998               	.LVL267:
 2999               	.L118:
 3000               	.LM329:
 3001 0e70 0894      		sec
 3002 0e72 C11C      		adc r12,__zero_reg__
 3003 0e74 D11C      		adc r13,__zero_reg__
 3004               	.LM330:
 3005 0e76 2AE0      		ldi r18,lo8(10)
 3006 0e78 30E0      		ldi r19,hi8(10)
 3007 0e7a 40E0      		ldi r20,hlo8(10)
 3008 0e7c 50E0      		ldi r21,hhi8(10)
 3009 0e7e 0E94 0000 		call __udivmodsi4
 3010               	.LVL268:
 3011 0e82 C901      		movw r24,r18
 3012 0e84 DA01      		movw r26,r20
 3013 0e86 BC01      		movw r22,r24
 3014 0e88 CD01      		movw r24,r26
 3015               	.LVL269:
 3016               	.LM331:
 3017 0e8a 6115      		cp r22,__zero_reg__
 3018 0e8c 7105      		cpc r23,__zero_reg__
 3019 0e8e 8105      		cpc r24,__zero_reg__
 3020 0e90 9105      		cpc r25,__zero_reg__
 3021 0e92 01F4      		brne .L118
 3022               	.LVL270:
 3023               	.LM332:
 3024 0e94 F601      		movw r30,r12
 3025 0e96 1082      		st Z,__zero_reg__
 3026               	.LM333:
 3027 0e98 5E01      		movw r10,r28
 3028 0e9a 0894      		sec
 3029 0e9c A11C      		adc r10,__zero_reg__
 3030 0e9e B11C      		adc r11,__zero_reg__
 3031               	.L119:
 3032 0ea0 C801      		movw r24,r16
 3033 0ea2 B701      		movw r22,r14
 3034               	.LVL271:
 3035 0ea4 2AE0      		ldi r18,lo8(10)
 3036 0ea6 30E0      		ldi r19,hi8(10)
 3037 0ea8 40E0      		ldi r20,hlo8(10)
 3038 0eaa 50E0      		ldi r21,hhi8(10)
 3039 0eac 0E94 0000 		call __udivmodsi4
 3040 0eb0 F501      		movw r30,r10
 3041 0eb2 E60F      		add r30,r22
 3042 0eb4 F71F      		adc r31,r23
 3043 0eb6 8081      		ld r24,Z
 3044               	.LVL272:
 3045 0eb8 F601      		movw r30,r12
 3046 0eba 8293      		st -Z,r24
 3047 0ebc 6F01      		movw r12,r30
 3048               	.LM334:
 3049 0ebe C801      		movw r24,r16
 3050 0ec0 B701      		movw r22,r14
 3051 0ec2 2AE0      		ldi r18,lo8(10)
 3052 0ec4 30E0      		ldi r19,hi8(10)
 3053 0ec6 40E0      		ldi r20,hlo8(10)
 3054 0ec8 50E0      		ldi r21,hhi8(10)
 3055 0eca 0E94 0000 		call __udivmodsi4
 3056 0ece C901      		movw r24,r18
 3057 0ed0 DA01      		movw r26,r20
 3058 0ed2 7C01      		movw r14,r24
 3059 0ed4 8D01      		movw r16,r26
 3060               	.LM335:
 3061 0ed6 E114      		cp r14,__zero_reg__
 3062 0ed8 F104      		cpc r15,__zero_reg__
 3063 0eda 0105      		cpc r16,__zero_reg__
 3064 0edc 1105      		cpc r17,__zero_reg__
 3065 0ede 01F4      		brne .L119
 3066               	.LM336:
 3067 0ee0 892D      		mov r24,r9
 3068 0ee2 982D      		mov r25,r8
 3069               	.LVL273:
 3070               	/* epilogue start */
 3071 0ee4 2B96      		adiw r28,11
 3072 0ee6 0FB6      		in __tmp_reg__,__SREG__
 3073 0ee8 F894      		cli
 3074 0eea DEBF      		out __SP_H__,r29
 3075 0eec 0FBE      		out __SREG__,__tmp_reg__
 3076 0eee CDBF      		out __SP_L__,r28
 3077 0ef0 CF91      		pop r28
 3078 0ef2 DF91      		pop r29
 3079 0ef4 1F91      		pop r17
 3080 0ef6 0F91      		pop r16
 3081 0ef8 FF90      		pop r15
 3082 0efa EF90      		pop r14
 3083               	.LVL274:
 3084 0efc DF90      		pop r13
 3085 0efe CF90      		pop r12
 3086               	.LVL275:
 3087 0f00 BF90      		pop r11
 3088 0f02 AF90      		pop r10
 3089 0f04 9F90      		pop r9
 3090               	.LVL276:
 3091 0f06 8F90      		pop r8
 3092               	.LVL277:
 3093 0f08 0895      		ret
 3094               	.LFE27:
 3096               	.global	shorttoa
 3098               	shorttoa:
 3099               	.LFB28:
 3100               	.LM337:
 3101               	.LVL278:
 3102 0f0a BF92      		push r11
 3103 0f0c CF92      		push r12
 3104 0f0e DF92      		push r13
 3105 0f10 EF92      		push r14
 3106 0f12 FF92      		push r15
 3107 0f14 0F93      		push r16
 3108 0f16 1F93      		push r17
 3109 0f18 DF93      		push r29
 3110 0f1a CF93      		push r28
 3111 0f1c CDB7      		in r28,__SP_L__
 3112 0f1e DEB7      		in r29,__SP_H__
 3113 0f20 2B97      		sbiw r28,11
 3114 0f22 0FB6      		in __tmp_reg__,__SREG__
 3115 0f24 F894      		cli
 3116 0f26 DEBF      		out __SP_H__,r29
 3117 0f28 0FBE      		out __SREG__,__tmp_reg__
 3118 0f2a CDBF      		out __SP_L__,r28
 3119               	/* prologue: function */
 3120               	/* frame size = 11 */
 3121 0f2c 7C01      		movw r14,r24
 3122 0f2e 462F      		mov r20,r22
 3123 0f30 B72E      		mov r11,r23
 3124               	.LVL279:
 3125               	.LM338:
 3126 0f32 DE01      		movw r26,r28
 3127 0f34 1196      		adiw r26,1
 3128 0f36 E0E0      		ldi r30,lo8(.LC0)
 3129 0f38 F0E0      		ldi r31,hi8(.LC0)
 3130 0f3a 8BE0      		ldi r24,lo8(11)
 3131               	.LVL280:
 3132               	.L125:
 3133 0f3c 0190      		ld r0,Z+
 3134 0f3e 0D92      		st X+,r0
 3135 0f40 8150      		subi r24,lo8(-(-1))
 3136 0f42 01F4      		brne .L125
 3137 0f44 842F      		mov r24,r20
 3138               	.LVL281:
 3139 0f46 9B2D      		mov r25,r11
 3140               	.LVL282:
 3141 0f48 9C01      		movw r18,r24
 3142               	.LVL283:
 3143 0f4a 8901      		movw r16,r18
 3144               	.LVL284:
 3145 0f4c C701      		movw r24,r14
 3146               	.LVL285:
 3147               	.L126:
 3148               	.LM339:
 3149 0f4e 0F5F      		subi r16,lo8(-(1))
 3150 0f50 1F4F      		sbci r17,hi8(-(1))
 3151               	.LM340:
 3152 0f52 6AE0      		ldi r22,lo8(10)
 3153 0f54 70E0      		ldi r23,hi8(10)
 3154 0f56 0E94 0000 		call __udivmodhi4
 3155               	.LVL286:
 3156 0f5a CB01      		movw r24,r22
 3157               	.LM341:
 3158 0f5c 6115      		cp r22,__zero_reg__
 3159 0f5e 7105      		cpc r23,__zero_reg__
 3160               	.LVL287:
 3161 0f60 01F4      		brne .L126
 3162               	.LM342:
 3163 0f62 F801      		movw r30,r16
 3164 0f64 1082      		st Z,__zero_reg__
 3165               	.LM343:
 3166 0f66 6E01      		movw r12,r28
 3167 0f68 0894      		sec
 3168 0f6a C11C      		adc r12,__zero_reg__
 3169 0f6c D11C      		adc r13,__zero_reg__
 3170               	.L127:
 3171 0f6e C701      		movw r24,r14
 3172 0f70 6AE0      		ldi r22,lo8(10)
 3173 0f72 70E0      		ldi r23,hi8(10)
 3174               	.LVL288:
 3175 0f74 0E94 0000 		call __udivmodhi4
 3176 0f78 F601      		movw r30,r12
 3177 0f7a E80F      		add r30,r24
 3178 0f7c F91F      		adc r31,r25
 3179 0f7e 8081      		ld r24,Z
 3180 0f80 F801      		movw r30,r16
 3181 0f82 8293      		st -Z,r24
 3182 0f84 8F01      		movw r16,r30
 3183               	.LM344:
 3184 0f86 C701      		movw r24,r14
 3185 0f88 6AE0      		ldi r22,lo8(10)
 3186 0f8a 70E0      		ldi r23,hi8(10)
 3187 0f8c 0E94 0000 		call __udivmodhi4
 3188 0f90 7B01      		movw r14,r22
 3189               	.LM345:
 3190 0f92 6115      		cp r22,__zero_reg__
 3191 0f94 7105      		cpc r23,__zero_reg__
 3192 0f96 01F4      		brne .L127
 3193               	.LVL289:
 3194               	.LM346:
 3195 0f98 842F      		mov r24,r20
 3196 0f9a 9B2D      		mov r25,r11
 3197               	.LVL290:
 3198               	/* epilogue start */
 3199 0f9c 2B96      		adiw r28,11
 3200 0f9e 0FB6      		in __tmp_reg__,__SREG__
 3201 0fa0 F894      		cli
 3202 0fa2 DEBF      		out __SP_H__,r29
 3203 0fa4 0FBE      		out __SREG__,__tmp_reg__
 3204 0fa6 CDBF      		out __SP_L__,r28
 3205 0fa8 CF91      		pop r28
 3206 0faa DF91      		pop r29
 3207 0fac 1F91      		pop r17
 3208 0fae 0F91      		pop r16
 3209               	.LVL291:
 3210 0fb0 FF90      		pop r15
 3211 0fb2 EF90      		pop r14
 3212 0fb4 DF90      		pop r13
 3213 0fb6 CF90      		pop r12
 3214 0fb8 BF90      		pop r11
 3215               	.LVL292:
 3216 0fba 0895      		ret
 3217               	.LFE28:
 3219               	.global	display_uint8
 3221               	display_uint8:
 3222               	.LFB29:
 3223               	.LM347:
 3224               	.LVL293:
 3225 0fbc DF93      		push r29
 3226 0fbe CF93      		push r28
 3227 0fc0 00D0      		rcall .
 3228 0fc2 0F92      		push __tmp_reg__
 3229 0fc4 CDB7      		in r28,__SP_L__
 3230 0fc6 DEB7      		in r29,__SP_H__
 3231               	/* prologue: function */
 3232               	/* frame size = 3 */
 3233               	.LM348:
 3234 0fc8 BE01      		movw r22,r28
 3235 0fca 6F5F      		subi r22,lo8(-(1))
 3236 0fcc 7F4F      		sbci r23,hi8(-(1))
 3237 0fce 0E94 0000 		call itoa
 3238               	.LVL294:
 3239 0fd2 0E94 0000 		call display_string
 3240               	/* epilogue start */
 3241               	.LM349:
 3242 0fd6 0F90      		pop __tmp_reg__
 3243 0fd8 0F90      		pop __tmp_reg__
 3244 0fda 0F90      		pop __tmp_reg__
 3245 0fdc CF91      		pop r28
 3246 0fde DF91      		pop r29
 3247 0fe0 0895      		ret
 3248               	.LFE29:
 3250               	.global	display_uint32
 3252               	display_uint32:
 3253               	.LFB30:
 3254               	.LM350:
 3255               	.LVL295:
 3256 0fe2 DF93      		push r29
 3257 0fe4 CF93      		push r28
 3258 0fe6 CDB7      		in r28,__SP_L__
 3259 0fe8 DEB7      		in r29,__SP_H__
 3260 0fea 2A97      		sbiw r28,10
 3261 0fec 0FB6      		in __tmp_reg__,__SREG__
 3262 0fee F894      		cli
 3263 0ff0 DEBF      		out __SP_H__,r29
 3264 0ff2 0FBE      		out __SREG__,__tmp_reg__
 3265 0ff4 CDBF      		out __SP_L__,r28
 3266               	/* prologue: function */
 3267               	/* frame size = 10 */
 3268               	.LM351:
 3269 0ff6 AE01      		movw r20,r28
 3270 0ff8 4F5F      		subi r20,lo8(-(1))
 3271 0ffa 5F4F      		sbci r21,hi8(-(1))
 3272 0ffc 0E94 0000 		call longtoa
 3273               	.LVL296:
 3274 1000 0E94 0000 		call display_string
 3275               	/* epilogue start */
 3276               	.LM352:
 3277 1004 2A96      		adiw r28,10
 3278 1006 0FB6      		in __tmp_reg__,__SREG__
 3279 1008 F894      		cli
 3280 100a DEBF      		out __SP_H__,r29
 3281 100c 0FBE      		out __SREG__,__tmp_reg__
 3282 100e CDBF      		out __SP_L__,r28
 3283 1010 CF91      		pop r28
 3284 1012 DF91      		pop r29
 3285 1014 0895      		ret
 3286               	.LFE30:
 3288               	.global	display_uint16
 3290               	display_uint16:
 3291               	.LFB31:
 3292               	.LM353:
 3293               	.LVL297:
 3294 1016 DF93      		push r29
 3295 1018 CF93      		push r28
 3296 101a CDB7      		in r28,__SP_L__
 3297 101c DEB7      		in r29,__SP_H__
 3298 101e 2797      		sbiw r28,7
 3299 1020 0FB6      		in __tmp_reg__,__SREG__
 3300 1022 F894      		cli
 3301 1024 DEBF      		out __SP_H__,r29
 3302 1026 0FBE      		out __SREG__,__tmp_reg__
 3303 1028 CDBF      		out __SP_L__,r28
 3304               	/* prologue: function */
 3305               	/* frame size = 7 */
 3306               	.LM354:
 3307 102a BE01      		movw r22,r28
 3308 102c 6F5F      		subi r22,lo8(-(1))
 3309 102e 7F4F      		sbci r23,hi8(-(1))
 3310 1030 0E94 0000 		call shorttoa
 3311               	.LVL298:
 3312 1034 0E94 0000 		call display_string
 3313               	/* epilogue start */
 3314               	.LM355:
 3315 1038 2796      		adiw r28,7
 3316 103a 0FB6      		in __tmp_reg__,__SREG__
 3317 103c F894      		cli
 3318 103e DEBF      		out __SP_H__,r29
 3319 1040 0FBE      		out __SREG__,__tmp_reg__
 3320 1042 CDBF      		out __SP_L__,r28
 3321 1044 CF91      		pop r28
 3322 1046 DF91      		pop r29
 3323 1048 0895      		ret
 3324               	.LFE31:
 3326               	.global	display_uint16_xy_col
 3328               	display_uint16_xy_col:
 3329               	.LFB32:
 3330               	.LM356:
 3331               	.LVL299:
 3332 104a CF92      		push r12
 3333 104c DF92      		push r13
 3334 104e EF92      		push r14
 3335 1050 FF92      		push r15
 3336 1052 0F93      		push r16
 3337 1054 1F93      		push r17
 3338 1056 DF93      		push r29
 3339 1058 CF93      		push r28
 3340 105a CDB7      		in r28,__SP_L__
 3341 105c DEB7      		in r29,__SP_H__
 3342 105e 2797      		sbiw r28,7
 3343 1060 0FB6      		in __tmp_reg__,__SREG__
 3344 1062 F894      		cli
 3345 1064 DEBF      		out __SP_H__,r29
 3346 1066 0FBE      		out __SREG__,__tmp_reg__
 3347 1068 CDBF      		out __SP_L__,r28
 3348               	/* prologue: function */
 3349               	/* frame size = 7 */
 3350 106a 8B01      		movw r16,r22
 3351 106c 7A01      		movw r14,r20
 3352 106e 6901      		movw r12,r18
 3353               	.LM357:
 3354 1070 BE01      		movw r22,r28
 3355               	.LVL300:
 3356 1072 6F5F      		subi r22,lo8(-(1))
 3357 1074 7F4F      		sbci r23,hi8(-(1))
 3358 1076 0E94 0000 		call shorttoa
 3359               	.LVL301:
 3360 107a B801      		movw r22,r16
 3361 107c A701      		movw r20,r14
 3362 107e 9601      		movw r18,r12
 3363 1080 0E94 0000 		call display_string_xy_col
 3364               	/* epilogue start */
 3365               	.LM358:
 3366 1084 2796      		adiw r28,7
 3367 1086 0FB6      		in __tmp_reg__,__SREG__
 3368 1088 F894      		cli
 3369 108a DEBF      		out __SP_H__,r29
 3370 108c 0FBE      		out __SREG__,__tmp_reg__
 3371 108e CDBF      		out __SP_L__,r28
 3372 1090 CF91      		pop r28
 3373 1092 DF91      		pop r29
 3374 1094 1F91      		pop r17
 3375 1096 0F91      		pop r16
 3376               	.LVL302:
 3377 1098 FF90      		pop r15
 3378 109a EF90      		pop r14
 3379               	.LVL303:
 3380 109c DF90      		pop r13
 3381 109e CF90      		pop r12
 3382               	.LVL304:
 3383 10a0 0895      		ret
 3384               	.LFE32:
 3386               	.global	display_uint16_xy
 3388               	display_uint16_xy:
 3389               	.LFB33:
 3390               	.LM359:
 3391               	.LVL305:
 3392 10a2 EF92      		push r14
 3393 10a4 FF92      		push r15
 3394 10a6 0F93      		push r16
 3395 10a8 1F93      		push r17
 3396 10aa DF93      		push r29
 3397 10ac CF93      		push r28
 3398 10ae CDB7      		in r28,__SP_L__
 3399 10b0 DEB7      		in r29,__SP_H__
 3400 10b2 2797      		sbiw r28,7
 3401 10b4 0FB6      		in __tmp_reg__,__SREG__
 3402 10b6 F894      		cli
 3403 10b8 DEBF      		out __SP_H__,r29
 3404 10ba 0FBE      		out __SREG__,__tmp_reg__
 3405 10bc CDBF      		out __SP_L__,r28
 3406               	/* prologue: function */
 3407               	/* frame size = 7 */
 3408 10be 8B01      		movw r16,r22
 3409 10c0 7A01      		movw r14,r20
 3410               	.LM360:
 3411 10c2 BE01      		movw r22,r28
 3412               	.LVL306:
 3413 10c4 6F5F      		subi r22,lo8(-(1))
 3414 10c6 7F4F      		sbci r23,hi8(-(1))
 3415 10c8 0E94 0000 		call shorttoa
 3416               	.LVL307:
 3417 10cc B801      		movw r22,r16
 3418 10ce A701      		movw r20,r14
 3419 10d0 0E94 0000 		call display_string_xy
 3420               	/* epilogue start */
 3421               	.LM361:
 3422 10d4 2796      		adiw r28,7
 3423 10d6 0FB6      		in __tmp_reg__,__SREG__
 3424 10d8 F894      		cli
 3425 10da DEBF      		out __SP_H__,r29
 3426 10dc 0FBE      		out __SREG__,__tmp_reg__
 3427 10de CDBF      		out __SP_L__,r28
 3428 10e0 CF91      		pop r28
 3429 10e2 DF91      		pop r29
 3430 10e4 1F91      		pop r17
 3431 10e6 0F91      		pop r16
 3432               	.LVL308:
 3433 10e8 FF90      		pop r15
 3434 10ea EF90      		pop r14
 3435               	.LVL309:
 3436 10ec 0895      		ret
 3437               	.LFE33:
 3439               	.global	display_uint16_col
 3441               	display_uint16_col:
 3442               	.LFB34:
 3443               	.LM362:
 3444               	.LVL310:
 3445 10ee 0F93      		push r16
 3446 10f0 1F93      		push r17
 3447 10f2 DF93      		push r29
 3448 10f4 CF93      		push r28
 3449 10f6 CDB7      		in r28,__SP_L__
 3450 10f8 DEB7      		in r29,__SP_H__
 3451 10fa 2797      		sbiw r28,7
 3452 10fc 0FB6      		in __tmp_reg__,__SREG__
 3453 10fe F894      		cli
 3454 1100 DEBF      		out __SP_H__,r29
 3455 1102 0FBE      		out __SREG__,__tmp_reg__
 3456 1104 CDBF      		out __SP_L__,r28
 3457               	/* prologue: function */
 3458               	/* frame size = 7 */
 3459 1106 8B01      		movw r16,r22
 3460               	.LM363:
 3461 1108 BE01      		movw r22,r28
 3462               	.LVL311:
 3463 110a 6F5F      		subi r22,lo8(-(1))
 3464 110c 7F4F      		sbci r23,hi8(-(1))
 3465 110e 0E94 0000 		call shorttoa
 3466               	.LVL312:
 3467 1112 B801      		movw r22,r16
 3468 1114 0E94 0000 		call display_string_col
 3469               	/* epilogue start */
 3470               	.LM364:
 3471 1118 2796      		adiw r28,7
 3472 111a 0FB6      		in __tmp_reg__,__SREG__
 3473 111c F894      		cli
 3474 111e DEBF      		out __SP_H__,r29
 3475 1120 0FBE      		out __SREG__,__tmp_reg__
 3476 1122 CDBF      		out __SP_L__,r28
 3477 1124 CF91      		pop r28
 3478 1126 DF91      		pop r29
 3479 1128 1F91      		pop r17
 3480 112a 0F91      		pop r16
 3481               	.LVL313:
 3482 112c 0895      		ret
 3483               	.LFE34:
 3485               	.global	display_uint8_xy_col
 3487               	display_uint8_xy_col:
 3488               	.LFB35:
 3489               	.LM365:
 3490               	.LVL314:
 3491 112e CF92      		push r12
 3492 1130 DF92      		push r13
 3493 1132 EF92      		push r14
 3494 1134 FF92      		push r15
 3495 1136 0F93      		push r16
 3496 1138 1F93      		push r17
 3497 113a DF93      		push r29
 3498 113c CF93      		push r28
 3499 113e 00D0      		rcall .
 3500 1140 0F92      		push __tmp_reg__
 3501 1142 CDB7      		in r28,__SP_L__
 3502 1144 DEB7      		in r29,__SP_H__
 3503               	/* prologue: function */
 3504               	/* frame size = 3 */
 3505 1146 8B01      		movw r16,r22
 3506 1148 7A01      		movw r14,r20
 3507 114a 6901      		movw r12,r18
 3508               	.LM366:
 3509 114c BE01      		movw r22,r28
 3510               	.LVL315:
 3511 114e 6F5F      		subi r22,lo8(-(1))
 3512 1150 7F4F      		sbci r23,hi8(-(1))
 3513 1152 0E94 0000 		call itoa
 3514               	.LVL316:
 3515 1156 B801      		movw r22,r16
 3516 1158 A701      		movw r20,r14
 3517 115a 9601      		movw r18,r12
 3518 115c 0E94 0000 		call display_string_xy_col
 3519               	/* epilogue start */
 3520               	.LM367:
 3521 1160 0F90      		pop __tmp_reg__
 3522 1162 0F90      		pop __tmp_reg__
 3523 1164 0F90      		pop __tmp_reg__
 3524 1166 CF91      		pop r28
 3525 1168 DF91      		pop r29
 3526 116a 1F91      		pop r17
 3527 116c 0F91      		pop r16
 3528               	.LVL317:
 3529 116e FF90      		pop r15
 3530 1170 EF90      		pop r14
 3531               	.LVL318:
 3532 1172 DF90      		pop r13
 3533 1174 CF90      		pop r12
 3534               	.LVL319:
 3535 1176 0895      		ret
 3536               	.LFE35:
 3538               	.global	font5x7
 3539               		.section	.progmem.data,"a",@progbits
 3542               	font5x7:
 3543 0000 00        		.byte	0
 3544 0001 00        		.byte	0
 3545 0002 00        		.byte	0
 3546 0003 00        		.byte	0
 3547 0004 00        		.byte	0
 3548 0005 00        		.byte	0
 3549 0006 00        		.byte	0
 3550 0007 5F        		.byte	95
 3551 0008 00        		.byte	0
 3552 0009 00        		.byte	0
 3553 000a 00        		.byte	0
 3554 000b 03        		.byte	3
 3555 000c 00        		.byte	0
 3556 000d 03        		.byte	3
 3557 000e 00        		.byte	0
 3558 000f 14        		.byte	20
 3559 0010 3E        		.byte	62
 3560 0011 14        		.byte	20
 3561 0012 3E        		.byte	62
 3562 0013 14        		.byte	20
 3563 0014 24        		.byte	36
 3564 0015 2A        		.byte	42
 3565 0016 7F        		.byte	127
 3566 0017 2A        		.byte	42
 3567 0018 12        		.byte	18
 3568 0019 43        		.byte	67
 3569 001a 33        		.byte	51
 3570 001b 08        		.byte	8
 3571 001c 66        		.byte	102
 3572 001d 61        		.byte	97
 3573 001e 36        		.byte	54
 3574 001f 49        		.byte	73
 3575 0020 55        		.byte	85
 3576 0021 22        		.byte	34
 3577 0022 50        		.byte	80
 3578 0023 00        		.byte	0
 3579 0024 05        		.byte	5
 3580 0025 03        		.byte	3
 3581 0026 00        		.byte	0
 3582 0027 00        		.byte	0
 3583 0028 00        		.byte	0
 3584 0029 1C        		.byte	28
 3585 002a 22        		.byte	34
 3586 002b 41        		.byte	65
 3587 002c 00        		.byte	0
 3588 002d 00        		.byte	0
 3589 002e 41        		.byte	65
 3590 002f 22        		.byte	34
 3591 0030 1C        		.byte	28
 3592 0031 00        		.byte	0
 3593 0032 14        		.byte	20
 3594 0033 08        		.byte	8
 3595 0034 3E        		.byte	62
 3596 0035 08        		.byte	8
 3597 0036 14        		.byte	20
 3598 0037 08        		.byte	8
 3599 0038 08        		.byte	8
 3600 0039 3E        		.byte	62
 3601 003a 08        		.byte	8
 3602 003b 08        		.byte	8
 3603 003c 00        		.byte	0
 3604 003d 50        		.byte	80
 3605 003e 30        		.byte	48
 3606 003f 00        		.byte	0
 3607 0040 00        		.byte	0
 3608 0041 08        		.byte	8
 3609 0042 08        		.byte	8
 3610 0043 08        		.byte	8
 3611 0044 08        		.byte	8
 3612 0045 08        		.byte	8
 3613 0046 00        		.byte	0
 3614 0047 60        		.byte	96
 3615 0048 60        		.byte	96
 3616 0049 00        		.byte	0
 3617 004a 00        		.byte	0
 3618 004b 20        		.byte	32
 3619 004c 10        		.byte	16
 3620 004d 08        		.byte	8
 3621 004e 04        		.byte	4
 3622 004f 02        		.byte	2
 3623 0050 3E        		.byte	62
 3624 0051 51        		.byte	81
 3625 0052 49        		.byte	73
 3626 0053 45        		.byte	69
 3627 0054 3E        		.byte	62
 3628 0055 00        		.byte	0
 3629 0056 04        		.byte	4
 3630 0057 02        		.byte	2
 3631 0058 7F        		.byte	127
 3632 0059 00        		.byte	0
 3633 005a 42        		.byte	66
 3634 005b 61        		.byte	97
 3635 005c 51        		.byte	81
 3636 005d 49        		.byte	73
 3637 005e 46        		.byte	70
 3638 005f 22        		.byte	34
 3639 0060 41        		.byte	65
 3640 0061 49        		.byte	73
 3641 0062 49        		.byte	73
 3642 0063 36        		.byte	54
 3643 0064 18        		.byte	24
 3644 0065 14        		.byte	20
 3645 0066 12        		.byte	18
 3646 0067 7F        		.byte	127
 3647 0068 10        		.byte	16
 3648 0069 27        		.byte	39
 3649 006a 45        		.byte	69
 3650 006b 45        		.byte	69
 3651 006c 45        		.byte	69
 3652 006d 39        		.byte	57
 3653 006e 3E        		.byte	62
 3654 006f 49        		.byte	73
 3655 0070 49        		.byte	73
 3656 0071 49        		.byte	73
 3657 0072 32        		.byte	50
 3658 0073 01        		.byte	1
 3659 0074 01        		.byte	1
 3660 0075 71        		.byte	113
 3661 0076 09        		.byte	9
 3662 0077 07        		.byte	7
 3663 0078 36        		.byte	54
 3664 0079 49        		.byte	73
 3665 007a 49        		.byte	73
 3666 007b 49        		.byte	73
 3667 007c 36        		.byte	54
 3668 007d 26        		.byte	38
 3669 007e 49        		.byte	73
 3670 007f 49        		.byte	73
 3671 0080 49        		.byte	73
 3672 0081 3E        		.byte	62
 3673 0082 00        		.byte	0
 3674 0083 36        		.byte	54
 3675 0084 36        		.byte	54
 3676 0085 00        		.byte	0
 3677 0086 00        		.byte	0
 3678 0087 00        		.byte	0
 3679 0088 56        		.byte	86
 3680 0089 36        		.byte	54
 3681 008a 00        		.byte	0
 3682 008b 00        		.byte	0
 3683 008c 08        		.byte	8
 3684 008d 14        		.byte	20
 3685 008e 22        		.byte	34
 3686 008f 41        		.byte	65
 3687 0090 00        		.byte	0
 3688 0091 14        		.byte	20
 3689 0092 14        		.byte	20
 3690 0093 14        		.byte	20
 3691 0094 14        		.byte	20
 3692 0095 14        		.byte	20
 3693 0096 00        		.byte	0
 3694 0097 41        		.byte	65
 3695 0098 22        		.byte	34
 3696 0099 14        		.byte	20
 3697 009a 08        		.byte	8
 3698 009b 02        		.byte	2
 3699 009c 01        		.byte	1
 3700 009d 51        		.byte	81
 3701 009e 09        		.byte	9
 3702 009f 06        		.byte	6
 3703 00a0 3E        		.byte	62
 3704 00a1 41        		.byte	65
 3705 00a2 59        		.byte	89
 3706 00a3 55        		.byte	85
 3707 00a4 5E        		.byte	94
 3708 00a5 7E        		.byte	126
 3709 00a6 09        		.byte	9
 3710 00a7 09        		.byte	9
 3711 00a8 09        		.byte	9
 3712 00a9 7E        		.byte	126
 3713 00aa 7F        		.byte	127
 3714 00ab 49        		.byte	73
 3715 00ac 49        		.byte	73
 3716 00ad 49        		.byte	73
 3717 00ae 36        		.byte	54
 3718 00af 3E        		.byte	62
 3719 00b0 41        		.byte	65
 3720 00b1 41        		.byte	65
 3721 00b2 41        		.byte	65
 3722 00b3 22        		.byte	34
 3723 00b4 7F        		.byte	127
 3724 00b5 41        		.byte	65
 3725 00b6 41        		.byte	65
 3726 00b7 41        		.byte	65
 3727 00b8 3E        		.byte	62
 3728 00b9 7F        		.byte	127
 3729 00ba 49        		.byte	73
 3730 00bb 49        		.byte	73
 3731 00bc 49        		.byte	73
 3732 00bd 41        		.byte	65
 3733 00be 7F        		.byte	127
 3734 00bf 09        		.byte	9
 3735 00c0 09        		.byte	9
 3736 00c1 09        		.byte	9
 3737 00c2 01        		.byte	1
 3738 00c3 3E        		.byte	62
 3739 00c4 41        		.byte	65
 3740 00c5 41        		.byte	65
 3741 00c6 49        		.byte	73
 3742 00c7 3A        		.byte	58
 3743 00c8 7F        		.byte	127
 3744 00c9 08        		.byte	8
 3745 00ca 08        		.byte	8
 3746 00cb 08        		.byte	8
 3747 00cc 7F        		.byte	127
 3748 00cd 00        		.byte	0
 3749 00ce 41        		.byte	65
 3750 00cf 7F        		.byte	127
 3751 00d0 41        		.byte	65
 3752 00d1 00        		.byte	0
 3753 00d2 30        		.byte	48
 3754 00d3 40        		.byte	64
 3755 00d4 40        		.byte	64
 3756 00d5 40        		.byte	64
 3757 00d6 3F        		.byte	63
 3758 00d7 7F        		.byte	127
 3759 00d8 08        		.byte	8
 3760 00d9 14        		.byte	20
 3761 00da 22        		.byte	34
 3762 00db 41        		.byte	65
 3763 00dc 7F        		.byte	127
 3764 00dd 40        		.byte	64
 3765 00de 40        		.byte	64
 3766 00df 40        		.byte	64
 3767 00e0 40        		.byte	64
 3768 00e1 7F        		.byte	127
 3769 00e2 02        		.byte	2
 3770 00e3 0C        		.byte	12
 3771 00e4 02        		.byte	2
 3772 00e5 7F        		.byte	127
 3773 00e6 7F        		.byte	127
 3774 00e7 02        		.byte	2
 3775 00e8 04        		.byte	4
 3776 00e9 08        		.byte	8
 3777 00ea 7F        		.byte	127
 3778 00eb 3E        		.byte	62
 3779 00ec 41        		.byte	65
 3780 00ed 41        		.byte	65
 3781 00ee 41        		.byte	65
 3782 00ef 3E        		.byte	62
 3783 00f0 7F        		.byte	127
 3784 00f1 09        		.byte	9
 3785 00f2 09        		.byte	9
 3786 00f3 09        		.byte	9
 3787 00f4 06        		.byte	6
 3788 00f5 1E        		.byte	30
 3789 00f6 21        		.byte	33
 3790 00f7 21        		.byte	33
 3791 00f8 21        		.byte	33
 3792 00f9 5E        		.byte	94
 3793 00fa 7F        		.byte	127
 3794 00fb 09        		.byte	9
 3795 00fc 09        		.byte	9
 3796 00fd 09        		.byte	9
 3797 00fe 76        		.byte	118
 3798 00ff 26        		.byte	38
 3799 0100 49        		.byte	73
 3800 0101 49        		.byte	73
 3801 0102 49        		.byte	73
 3802 0103 32        		.byte	50
 3803 0104 01        		.byte	1
 3804 0105 01        		.byte	1
 3805 0106 7F        		.byte	127
 3806 0107 01        		.byte	1
 3807 0108 01        		.byte	1
 3808 0109 3F        		.byte	63
 3809 010a 40        		.byte	64
 3810 010b 40        		.byte	64
 3811 010c 40        		.byte	64
 3812 010d 3F        		.byte	63
 3813 010e 1F        		.byte	31
 3814 010f 20        		.byte	32
 3815 0110 40        		.byte	64
 3816 0111 20        		.byte	32
 3817 0112 1F        		.byte	31
 3818 0113 7F        		.byte	127
 3819 0114 20        		.byte	32
 3820 0115 10        		.byte	16
 3821 0116 20        		.byte	32
 3822 0117 7F        		.byte	127
 3823 0118 41        		.byte	65
 3824 0119 22        		.byte	34
 3825 011a 1C        		.byte	28
 3826 011b 22        		.byte	34
 3827 011c 41        		.byte	65
 3828 011d 07        		.byte	7
 3829 011e 08        		.byte	8
 3830 011f 70        		.byte	112
 3831 0120 08        		.byte	8
 3832 0121 07        		.byte	7
 3833 0122 61        		.byte	97
 3834 0123 51        		.byte	81
 3835 0124 49        		.byte	73
 3836 0125 45        		.byte	69
 3837 0126 43        		.byte	67
 3838 0127 00        		.byte	0
 3839 0128 7F        		.byte	127
 3840 0129 41        		.byte	65
 3841 012a 00        		.byte	0
 3842 012b 00        		.byte	0
 3843 012c 02        		.byte	2
 3844 012d 04        		.byte	4
 3845 012e 08        		.byte	8
 3846 012f 10        		.byte	16
 3847 0130 20        		.byte	32
 3848 0131 00        		.byte	0
 3849 0132 00        		.byte	0
 3850 0133 41        		.byte	65
 3851 0134 7F        		.byte	127
 3852 0135 00        		.byte	0
 3853 0136 04        		.byte	4
 3854 0137 02        		.byte	2
 3855 0138 01        		.byte	1
 3856 0139 02        		.byte	2
 3857 013a 04        		.byte	4
 3858 013b 40        		.byte	64
 3859 013c 40        		.byte	64
 3860 013d 40        		.byte	64
 3861 013e 40        		.byte	64
 3862 013f 40        		.byte	64
 3863 0140 00        		.byte	0
 3864 0141 01        		.byte	1
 3865 0142 02        		.byte	2
 3866 0143 04        		.byte	4
 3867 0144 00        		.byte	0
 3868 0145 20        		.byte	32
 3869 0146 54        		.byte	84
 3870 0147 54        		.byte	84
 3871 0148 54        		.byte	84
 3872 0149 78        		.byte	120
 3873 014a 7F        		.byte	127
 3874 014b 44        		.byte	68
 3875 014c 44        		.byte	68
 3876 014d 44        		.byte	68
 3877 014e 38        		.byte	56
 3878 014f 38        		.byte	56
 3879 0150 44        		.byte	68
 3880 0151 44        		.byte	68
 3881 0152 44        		.byte	68
 3882 0153 44        		.byte	68
 3883 0154 38        		.byte	56
 3884 0155 44        		.byte	68
 3885 0156 44        		.byte	68
 3886 0157 44        		.byte	68
 3887 0158 7F        		.byte	127
 3888 0159 38        		.byte	56
 3889 015a 54        		.byte	84
 3890 015b 54        		.byte	84
 3891 015c 54        		.byte	84
 3892 015d 18        		.byte	24
 3893 015e 04        		.byte	4
 3894 015f 04        		.byte	4
 3895 0160 7E        		.byte	126
 3896 0161 05        		.byte	5
 3897 0162 05        		.byte	5
 3898 0163 08        		.byte	8
 3899 0164 54        		.byte	84
 3900 0165 54        		.byte	84
 3901 0166 54        		.byte	84
 3902 0167 3C        		.byte	60
 3903 0168 7F        		.byte	127
 3904 0169 08        		.byte	8
 3905 016a 04        		.byte	4
 3906 016b 04        		.byte	4
 3907 016c 78        		.byte	120
 3908 016d 00        		.byte	0
 3909 016e 44        		.byte	68
 3910 016f 7D        		.byte	125
 3911 0170 40        		.byte	64
 3912 0171 00        		.byte	0
 3913 0172 20        		.byte	32
 3914 0173 40        		.byte	64
 3915 0174 44        		.byte	68
 3916 0175 3D        		.byte	61
 3917 0176 00        		.byte	0
 3918 0177 7F        		.byte	127
 3919 0178 10        		.byte	16
 3920 0179 28        		.byte	40
 3921 017a 44        		.byte	68
 3922 017b 00        		.byte	0
 3923 017c 00        		.byte	0
 3924 017d 41        		.byte	65
 3925 017e 7F        		.byte	127
 3926 017f 40        		.byte	64
 3927 0180 00        		.byte	0
 3928 0181 7C        		.byte	124
 3929 0182 04        		.byte	4
 3930 0183 78        		.byte	120
 3931 0184 04        		.byte	4
 3932 0185 78        		.byte	120
 3933 0186 7C        		.byte	124
 3934 0187 08        		.byte	8
 3935 0188 04        		.byte	4
 3936 0189 04        		.byte	4
 3937 018a 78        		.byte	120
 3938 018b 38        		.byte	56
 3939 018c 44        		.byte	68
 3940 018d 44        		.byte	68
 3941 018e 44        		.byte	68
 3942 018f 38        		.byte	56
 3943 0190 7C        		.byte	124
 3944 0191 14        		.byte	20
 3945 0192 14        		.byte	20
 3946 0193 14        		.byte	20
 3947 0194 08        		.byte	8
 3948 0195 08        		.byte	8
 3949 0196 14        		.byte	20
 3950 0197 14        		.byte	20
 3951 0198 14        		.byte	20
 3952 0199 7C        		.byte	124
 3953 019a 00        		.byte	0
 3954 019b 7C        		.byte	124
 3955 019c 08        		.byte	8
 3956 019d 04        		.byte	4
 3957 019e 04        		.byte	4
 3958 019f 48        		.byte	72
 3959 01a0 54        		.byte	84
 3960 01a1 54        		.byte	84
 3961 01a2 54        		.byte	84
 3962 01a3 20        		.byte	32
 3963 01a4 04        		.byte	4
 3964 01a5 04        		.byte	4
 3965 01a6 3F        		.byte	63
 3966 01a7 44        		.byte	68
 3967 01a8 44        		.byte	68
 3968 01a9 3C        		.byte	60
 3969 01aa 40        		.byte	64
 3970 01ab 40        		.byte	64
 3971 01ac 20        		.byte	32
 3972 01ad 7C        		.byte	124
 3973 01ae 1C        		.byte	28
 3974 01af 20        		.byte	32
 3975 01b0 40        		.byte	64
 3976 01b1 20        		.byte	32
 3977 01b2 1C        		.byte	28
 3978 01b3 3C        		.byte	60
 3979 01b4 40        		.byte	64
 3980 01b5 30        		.byte	48
 3981 01b6 40        		.byte	64
 3982 01b7 3C        		.byte	60
 3983 01b8 44        		.byte	68
 3984 01b9 28        		.byte	40
 3985 01ba 10        		.byte	16
 3986 01bb 28        		.byte	40
 3987 01bc 44        		.byte	68
 3988 01bd 0C        		.byte	12
 3989 01be 50        		.byte	80
 3990 01bf 50        		.byte	80
 3991 01c0 50        		.byte	80
 3992 01c1 3C        		.byte	60
 3993 01c2 44        		.byte	68
 3994 01c3 64        		.byte	100
 3995 01c4 54        		.byte	84
 3996 01c5 4C        		.byte	76
 3997 01c6 44        		.byte	68
 3998 01c7 00        		.byte	0
 3999 01c8 08        		.byte	8
 4000 01c9 36        		.byte	54
 4001 01ca 41        		.byte	65
 4002 01cb 41        		.byte	65
 4003 01cc 00        		.byte	0
 4004 01cd 00        		.byte	0
 4005 01ce 7F        		.byte	127
 4006 01cf 00        		.byte	0
 4007 01d0 00        		.byte	0
 4008 01d1 41        		.byte	65
 4009 01d2 41        		.byte	65
 4010 01d3 36        		.byte	54
 4011 01d4 08        		.byte	8
 4012 01d5 00        		.byte	0
 4013 01d6 02        		.byte	2
 4014 01d7 01        		.byte	1
 4015 01d8 02        		.byte	2
 4016 01d9 04        		.byte	4
 4017 01da 02        		.byte	2
 4018               		.comm display,13,1
 4267               	.Letext0:
DEFINED SYMBOLS
                            *ABS*:00000000 lcd.c
C:\Users\JOSHUA~1\AppData\Local\Temp/cchPmOd7.s:2      *ABS*:0000003f __SREG__
C:\Users\JOSHUA~1\AppData\Local\Temp/cchPmOd7.s:3      *ABS*:0000003e __SP_H__
C:\Users\JOSHUA~1\AppData\Local\Temp/cchPmOd7.s:4      *ABS*:0000003d __SP_L__
C:\Users\JOSHUA~1\AppData\Local\Temp/cchPmOd7.s:5      *ABS*:00000034 __CCP__
C:\Users\JOSHUA~1\AppData\Local\Temp/cchPmOd7.s:6      *ABS*:00000000 __tmp_reg__
C:\Users\JOSHUA~1\AppData\Local\Temp/cchPmOd7.s:7      *ABS*:00000001 __zero_reg__
C:\Users\JOSHUA~1\AppData\Local\Temp/cchPmOd7.s:18     .text:00000000 lcd_brightness
C:\Users\JOSHUA~1\AppData\Local\Temp/cchPmOd7.s:39     .text:00000012 set_orientation
                            *COM*:0000000d display
C:\Users\JOSHUA~1\AppData\Local\Temp/cchPmOd7.s:206    .text:00000100 set_frame_rate_hz
C:\Users\JOSHUA~1\AppData\Local\Temp/cchPmOd7.s:309    .text:00000172 fill_image_pgm
C:\Users\JOSHUA~1\AppData\Local\Temp/cchPmOd7.s:688    .text:000002fa fill_image_pgm_2b
C:\Users\JOSHUA~1\AppData\Local\Temp/cchPmOd7.s:1040   .text:00000482 fill_image
C:\Users\JOSHUA~1\AppData\Local\Temp/cchPmOd7.s:1318   .text:000005e2 fill_rectangle
C:\Users\JOSHUA~1\AppData\Local\Temp/cchPmOd7.s:1574   .text:0000074c fill_rectangle_c
C:\Users\JOSHUA~1\AppData\Local\Temp/cchPmOd7.s:1803   .text:00000872 fill_rectangle_indexed
C:\Users\JOSHUA~1\AppData\Local\Temp/cchPmOd7.s:1936   .text:0000092a clear_screen
C:\Users\JOSHUA~1\AppData\Local\Temp/cchPmOd7.s:2003   .text:000009a8 init_lcd
C:\Users\JOSHUA~1\AppData\Local\Temp/cchPmOd7.s:2306   .text:00000ae6 display_char_col
C:\Users\JOSHUA~1\AppData\Local\Temp/cchPmOd7.s:3542   .progmem.data:00000000 font5x7
C:\Users\JOSHUA~1\AppData\Local\Temp/cchPmOd7.s:2588   .text:00000c78 display_char_xy_col
C:\Users\JOSHUA~1\AppData\Local\Temp/cchPmOd7.s:2620   .text:00000c9a display_char
C:\Users\JOSHUA~1\AppData\Local\Temp/cchPmOd7.s:2640   .text:00000cb0 display_string_col
C:\Users\JOSHUA~1\AppData\Local\Temp/cchPmOd7.s:2689   .text:00000cea display_string
C:\Users\JOSHUA~1\AppData\Local\Temp/cchPmOd7.s:2707   .text:00000cf8 display_string_xy_col
C:\Users\JOSHUA~1\AppData\Local\Temp/cchPmOd7.s:2763   .text:00000d42 display_string_xy
C:\Users\JOSHUA~1\AppData\Local\Temp/cchPmOd7.s:2781   .text:00000d50 display_register
C:\Users\JOSHUA~1\AppData\Local\Temp/cchPmOd7.s:2847   .text:00000da0 itoa
C:\Users\JOSHUA~1\AppData\Local\Temp/cchPmOd7.s:2945   .text:00000e22 longtoa
C:\Users\JOSHUA~1\AppData\Local\Temp/cchPmOd7.s:3098   .text:00000f0a shorttoa
C:\Users\JOSHUA~1\AppData\Local\Temp/cchPmOd7.s:3221   .text:00000fbc display_uint8
C:\Users\JOSHUA~1\AppData\Local\Temp/cchPmOd7.s:3252   .text:00000fe2 display_uint32
C:\Users\JOSHUA~1\AppData\Local\Temp/cchPmOd7.s:3290   .text:00001016 display_uint16
C:\Users\JOSHUA~1\AppData\Local\Temp/cchPmOd7.s:3328   .text:0000104a display_uint16_xy_col
C:\Users\JOSHUA~1\AppData\Local\Temp/cchPmOd7.s:3388   .text:000010a2 display_uint16_xy
C:\Users\JOSHUA~1\AppData\Local\Temp/cchPmOd7.s:3441   .text:000010ee display_uint16_col
C:\Users\JOSHUA~1\AppData\Local\Temp/cchPmOd7.s:3487   .text:0000112e display_uint8_xy_col

UNDEFINED SYMBOLS
__floatsisf
__divsf3
__fixunssfsi
__udivmodqi4
__udivmodsi4
__udivmodhi4
__do_copy_data
__do_clear_bss
